(lp1
S'joshua pollak'
p2
aS'stella cen'
p3
aS'mukherjee kunal phenaos'
p4
aS'healey edward'
p5
aS'laura'
p6
aS'webster christopher'
p7
aS'daniel maria'
p8
aS'duns mcnary christine'
p9
aS'shapefile mcdonnell bart'
p10
aS'pelosi nancy'
p11
aS'enriquez roldan san'
p12
aS'jessie'
p13
aS'guerrero'
p14
aS'bruce lahey'
p15
aS'peterson nicholas'
p16
aS'kaukonen jorma'
p17
aS'monte bucoy'
p18
aS'vander curtis depaoli skyler dunn'
p19
aS'aaron'
p20
aS'edward'
p21
aS'jimmy choo'
p22
aS'henderson'
p23
aS'socrata'
p24
aS'sfcrime san'
p25
aS'kanzawa toby'
p26
aS'angelo thomas'
p27
aS'ned oneway'
p28
aS'collison'
p29
aS'wong eric arnold'
p30
aS'hewlett'
p31
aS'sfpd terry'
p32
aS'daniel feinberg'
p33
aS'dvorak'
p34
aS'bryant'
p35
aS'shorline noonan'
p36
aS'broderick'
p37
aS'louis'
p38
aS'joel'
p39
aS'michael'
p40
aS'ryan'
p41
aS'mcallister'
p42
aS'julie christensen'
p43
aS'martinez michael'
p44
aS'roderick baltazar'
p45
aS'maluku san indonesia georg gottschalk jonathan ross'
p46
aS'lisa'
p47
aS'gallareadwilson brigitte'
p48
aS'bock'
p49
aS'ted'
p50
aS'mel murphy'
p51
aS'lully'
p52
aS'battenfield'
p53
aS'u4y3k4vs'
p54
aS'sereno el'
p55
aS'currie'
p56
aS'pande'
p57
aS'rivera'
p58
aS'sanders bernie san martin'
p59
aS'jordan david'
p60
aS'brophy'
p61
aS'murphy dylan'
p62
aS'stella kim'
p63
aS'abi'
p64
aS'dolores san'
p65
aS'russell corr'
p66
aS'robert walsh'
p67
aS'steiner'
p68
aS'raymond chow'
p69
aS'neeson'
p70
aS'filbert'
p71
aS'stitt'
p72
aS'karen rae'
p73
aS'shaffer ellen'
p74
aS'kronos'
p75
aS'aragon tomas niestzche'
p76
aS'webster'
p77
aS'travis kalanick'
p78
aS'karen lum'
p79
aS'william nagel jeff'
p80
aS'lyell'
p81
aS'shapefile sano'
p82
aS'slaes'
p83
aS'cervantes'
p84
aS'franklin'
p85
aS'cindy'
p86
aS'quicklys'
p87
aS'poyas robert'
p88
aS'menues'
p89
aS'san incidnets'
p90
aS'abdel'
p91
aS'lena kline jouzen'
p92
aS'andreas'
p93
aS'keith'
p94
aS'francis sophia'
p95
aS'anda'
p96
aS'gautam'
p97
aS'mork'
p98
aS'christopher crehan'
p99
aS'surgestorm'
p100
aS'blair michael'
p101
aS'jane hammond'
p102
aS'yu florence'
p103
aS'murray christine'
p104
aS'choy vincent justin'
p105
aS'lucida'
p106
aS'shauna'
p107
aS'nguyen'
p108
aS'acident seiu campos scott harrison derrick'
p109
aS'missionbay graff'
p110
aS'thompson richard'
p111
aS'neighboorhood dbi0002buildingpermitscsv'
p112
aS'villanueva david'
p113
aS'nagel jeff'
p114
aS'broderick st'
p115
aS'sutter'
p116
aS'yu david'
p117
aS'bucharest brenda'
p118
aS'sansome'
p119
aS'petersen'
p120
aS'wilson brigitte'
p121
aS'telco beethoven'
p122
aS'francois terry'
p123
aS'ron conway'
p124
aS'waddell'
p125
aS'gervais alain'
p126
aS'brian dussealt'
p127
aS'94105xc3xa7'
p128
aS'carroll'
p129
aS'taz'
p130
aS'chiu'
p131
aS'walsh'
p132
aS'tam'
p133
aS'dennis'
p134
aS'beale'
p135
aS'francisco marik richard'
p136
aS'shapefile'
p137
aS'molnar'
p138
aS'asma'
p139
aS'haight'
p140
aS'sid'
p141
aS'chiriboga richard'
p142
aS'sato'
p143
aS'lan'
p144
aS'tidewater julie baumgartner'
p145
aS'curtis dunn'
p146
aS'elizabeth'
p147
aS'kimotsuki joyce'
p148
aS'myles lennon'
p149
aS'vartan alex'
p150
aS'mao'
p151
aS'harmon'
p152
aS'georgy cultureandrecreation norkin'
p153
aS'brady'
p154
aS'johnson'
p155
aS'serrano'
p156
aS'bokime'
p157
aS'octavia'
p158
aS'nancy'
p159
aS'francisco san johnson'
p160
aS'plawiak'
p161
aS'coates hents'
p162
aS'lindsay'
p163
aS'phycisian'
p164
aS'ttx'
p165
aS'roos mello'
p166
aS'kostka'
p167
aS'vallejo smith george'
p168
aS'schmotter parklets'
p169
aS'amador jessica'
p170
aS'meteo'
p171
aS'guida george'
p172
aS'lynn friedman'
p173
aS'salesclassicxpertscom'
p174
aS'blake'
p175
aS'brian'
p176
aS'jim'
p177
aS'oakley'
p178
aS'busines edward'
p179
aS'citigroup eric'
p180
aS'hanks'
p181
aS'bikeway'
p182
aS'perry michael'
p183
aS'agenies'
p184
aS'scalia antonin'
p185
aS'carl excelsior'
p186
aS'charley christopher'
p187
aS'bernal'
p188
aS'marcus'
p189
aS'vidal'
p190
aS'alex'
p191
aS'hyland muni'
p192
aS'james'
p193
aS'tran'
p194
aS'daniel countours la'
p195
aS'connolly'
p196
aS'wong'
p197
aS'anastasia'
p198
aS'alchol hurley'
p199
aS'maher'
p200
aS'heneghan kevin'
p201
aS'langton howard'
p202
aS'carlos'
p203
aS'perrault'
p204
aS'gordon stuart'
p205
aS'naveen'
p206
aS'diana'
p207
aS'villarreal albert henry'
p208
aS'docmatter'
p209
aS'douglas legg'
p210
aS'huntington'
p211
aS'martinez'
p212
aS'budjet muni'
p213
aS'parcelzoning'
p214
aS'sloat'
p215
aS'jackson'
p216
aS'blu'
p217
aS'dr francisco christopher san'
p218
aS'george'
p219
aS'olson david'
p220
aS'daniel'
p221
aS'harold'
p222
aS'christensen'
p223
aS'dunn'
p224
aS'noriega'
p225
aS'pue'
p226
aS'frans'
p227
aS'paes'
p228
aS'hudson michael sfpd'
p229
aS'burnett leo'
p230
aS'herrera dennis'
p231
aS'gardebs'
p232
aS'aso'
p233
aS'registrati brannan'
p234
aS'sf311'
p235
aS'robert scott hickman'
p236
aS'kubo'
p237
aS'drupal'
p238
aS'stillman'
p239
aS'jackson micheal'
p240
aS'seims corey canapary'
p241
aS'benton andrew'
p242
aS'udon kaka'
p243
aS'adrian'
p244
aS'citylots shereef'
p245
aS'xiang'
p246
aS'mobilefoodfacilitypermitcsv'
p247
aS'sanchez'
p248
aS'henry'
p249
aS'sobel'
p250
aS'abandoment erna'
p251
aS'parkinson'
p252
aS'holland steven'
p253
aS'lanita francis henriquez'
p254
aS'smit'
p255
aS'bauer eddie'
p256
aS'ilica andrei'
p257
aS'kogan vadim'
p258
aS'loytavian'
p259
aS'dunn curti'
p260
aS'samson chow'
p261
aS'klung kevin'
p262
aS'hilary'
p263
aS'edwards kevin'
p264
aS'hetch'
p265
aS'hsa paes'
p266
aS'james peavey'
p267
aS'zimmerman andrew'
p268
aS'townsend'
p269
aS'larkin'
p270
aS'anson mooney'
p271
aS'ginsburg phil'
p272
aS'raphael pepi'
p273
aS'smdf6c45'
p274
aS'saeger molly'
p275
aS'colter'
p276
aS'chong'
p277
aS'hines'
p278
aS'quesada'
p279
aS'ahmed'
p280
aS'martin nye miranda'
p281
aS'jacob shikh san'
p282
aS'malvar kenneth'
p283
aS'maura hogan'
p284
aS'hayward hayes'
p285
aS'tanjuto marie streetsweeping'
p286
aS'linda kahn'
p287
aS'francis footfall'
p288
aS'avictia danny'
p289
aS'neighborbhoos'
p290
aS'aragon'
p291
aS'gregory 1813'
p292
aS'madeleine scinto'
p293
aS'ellis dccc'
p294
aS'san'
p295
aS'reyes probatiopn'
p296
aS'julian'
p297
aS'michele'
p298
aS'jones jim'
p299
aS'nale david'
p300
aS'mchugh fransisco eunice'
p301
aS'diana lerner oakland'
p302
aS'ulmer'
p303
aS'kevin'
p304
aS'wilson'
p305
aS'brannan'
p306
aS'corbett'
p307
aS'judah'
p308
aS'bai'
p309
aS'johnson jeff'
p310
aS'matthew brenner'
p311
aS'connelly'
p312
aS'derek'
p313
aS'fong walter'
p314
aS'orton'
p315
aS'linda'
p316
aS'kronenberg anne haight'
p317
aS'havelock countour eid rashad'
p318
aS'vassallo'
p319
aS'pearlman jonathan san'
p320
aS'victoria'
p321
aS'mende'
p322
aS'alan'
p323
aS'sfpdincidents hickman'
p324
aS'tracy'
p325
aS'maria'
p326
aS'lerner'
p327
aS'daniel lucas'
p328
aS'dorothy tyson'
p329
aS'chester'
p330
aS'schulz'
p331
aS'bateman'
p332
aS'thomas'
p333
aS'egbert'
p334
aS'hcso'
p335
aS'kwok sfobikecounters'
p336
aS'j michael'
p337
aS'baraka keith'
p338
aS'stella schlee'
p339
aS'luis aroche'
p340
aS'tilly'
p341
aS'duncan'
p342
aS'buss'
p343
aS'san janet macleod haightasbury'
p344
aS'tian yun'
p345
aS'bernard'
p346
aS'ritzu antoine'
p347
aS'hutcherson nakiya'
p348
aS'douglass'
p349
aS'weve'
p350
aS'muni'
p351
aS'bsuiness'
p352
aS'briscoe'
p353
aS'francisco san'
p354
aS'legrand michel'
p355
aS'tsang'
p356
aS'reataurant'
p357
aS'cotter'
p358
aS'michael cline lasala'
p359
aS'francisco chiu dem david'
p360
aS'chris van'
p361
aS'garcia'
p362
aS'miley'
p363
aS'vincent'
p364
aS'sqft'
p365
aS'geary'
p366
aS'bart'
p367
aS'foleys bock johnny sharmin'
p368
aS'michael schulz'
p369
aS'robert colburn'
p370
aS'hwang van clement'
p371
aS'waldron'
p372
aS'paul'
p373
aS'alix foof rosenthal'
p374
aS'zula joseph wehrer'
p375
aS'duff'
p376
aS'daniel rpd spirn'
p377
aS'james rousey'
p378
aS'ceccx'
p379
aS'courteney cunningham'
p380
aS'programmin leung angela'
p381
aS'hilary ronen'
p382
aS'maloney shannon'
p383
aS'raphael needleman'
p384
aS'herrera'
p385
aS'clayton'
p386
aS'chavez'
p387
aS'infastructure'
p388
aS'nguyen auerbach david'
p389
aS'shapefile jeff'
p390
aS'sffac'
p391
aS'shapefile thoma walter'
p392
aS'tse'
p393
aS'imad soltani'
p394
aS'francisco dr justin san'
p395
aS'william morris'
p396
aS'deyoung'
p397
aS'staance'
p398
aS'sfmta owen muni david'
p399
aS'figueroa liquefecation maite'
p400
aS'aaron peskin'
p401
aS'keenan patterson'
p402
aS'joanne minsky'
p403
aS'polk'
p404
aS'hammond nathan'
p405
aS'walton charles'
p406
aS'structoris'
p407
aS'johnson richard noi'
p408
aS'howard'
p409
aS'jane jackson kim pulmonar'
p410
aS'sara'
p411
aS'timothy quayle'
p412
aS'tisone jenh deanna nancy canping'
p413
aS'diana lcc'
p414
aS'noel'
p415
aS'mary'
p416
aS'interst wesson'
p417
aS'hsu david'
p418
aS'sanders'
p419
aS'irving'
p420
aS'geekatoo recology wong anne shevin'
p421
aS'melinda weil'
p422
aS'lindley'
p423
aS'drainge'
p424
aS'polutioin'
p425
aS'kimball offcie xc4x8digarate'
p426
aS'mary jung dccc'
p427
aS'vallejo'
p428
aS'ina'
p429
aS'pedvictimsksishp'
p430
aS'castro'
p431
aS'hayes'
p432
aS'remi'
p433
aS'gucci'
p434
aS'enriquez roldan'
p435
aS'jeanette'
p436
aS'scanlan'
p437
aS'compensations'
p438
aS'carlson'
p439
aS'sforestaurant'
p440
aS'cesar chavez'
p441
aS'geoff matheiux'
p442
aS'rex andrew'
p443
aS'pangaeaproject san'
p444
aS'cheung steven'
p445
aS'ave lawrence'
p446
aS'kwan'
p447
aS'apartmet san cirt'
p448
aS'parkingevents'
p449
aS'seyfarth shaw'
p450
aS'gregg'
p451
aS'santos ocii adrian'
p452
aS'rightofway'
p453
aS'budge311t'
p454
aS'futurityit zipcode russell'
p455
aS'powell'
p456
aS'pm25'
p457
aS'joshua arce leon'
p458
aS'jeffrey'
p459
aS'manuel loli'
p460
aS'ellis demograpy'
p461
aS'blair'
p462
aS'arest'
p463
aS'davis paul ecorestore'
p464
aS'harris'
p465
aS'duis mateo'
p466
aS'kim'
p467
aS'landor levi strauss'
p468
aS'daniel patterson'
p469
aS'paul mathews'
p470
aS'bert polacci'
p471
aS'hansen kristian'
p472
aS'narvy carla hamilton'
p473
aS'opendata'
p474
aS'charbonneau'
p475
aS'tia howard'
p476
aS'ticekts'
p477
aS'boundries'
p478
aS'yee'
p479
aS'studentweightstatuscategoryreportingresultsbeginning2010'
p480
aS'gdb'
p481
aS'pahlka'
p482
aS'reso'
p483
aS'harrison'
p484
aS'wong jennifer'
p485
aS'spasde'
p486
aS'dito'
p487
aS'titus richard'
p488
aS'jose'
p489
aS'judah felina'
p490
aS'los turk'
p491
aS'andycarl'
p492
aS'tara kantner kini'
p493
aS'scalia activspace'
p494
aS'armin'
p495
aS'ucsb culturegraphic'
p496
aS'wiseman'
p497
aS'hala hijazi'
p498
aS'ellen'
p499
aS'ami'
p500
aS'lichtenstein noah'
p501
aS'szulczewski piotr'
p502
aS'jtdkn3du2a1245323 waze'
p503
aS'bui richard'
p504
aS'distrcit'
p505
aS'lyle monica'
p506
aS'wiener scott'
p507
aS'davis judith'
p508
aS'pacheco'
p509
aS'eric'
p510
aS'rammp'
p511
aS'dpw wallis'
p512
aS'gdb landor'
p513
aS'sealevel riyadh'
p514
aS'roth'
p515
aS'gandhi'
p516
aS'martin'
p517
aS'clementina'
p518
aS'diana lerner'
p519
aS'moggio'
p520
aS'doherty'
p521
aS'brian cerrito burr'
p522
aS'almarida'
p523
aS'northrop'
p524
aS'streeets'
p525
aS'molina'
p526
aS'sitlie'
p527
aS'ttransportation'
p528
aS'becky bruno'
p529
aS'brian dusseault'
p530
aS'ellis'
p531
aS'carmen chu'
p532
aS'restricitions'
p533
aS'ziddl'
p534
aS'jeanette feddes'
p535
aS'homesharing jeanette apge'
p536
aS'newcomb'
p537
aS'latham'
p538
aS'lino flavia'
p539
aS'shapefile holliday bikeway'
p540
aS'fehr compensations'
p541
aS'cyril magnin'
p542
aS'schleelein waltham eric'
p543
aS'edward anaya'
p544
aS'thomas coates'
p545
aS'haightashbury'
p546
aS'reynolds kim'
p547
aS'voture'
p548
aS'hopkins'
p549
aS'cigaretter crimeincidentdata anaya'
p550
aS'scott kevin'
p551
aS'arguello'
p552
aS'distircts'
p553
aS'busines stacie hinman'
p554
aS'taqueria'
p555
aS'stuart'
p556
aS'johnston'
p557
aS'webster michael'
p558
aS'taqueria castillo'
p559
aS'farrell'
p560
aS'2015009422enf'
p561
aS'robert retana'
p562
aS'johns'
p563
aS'8aqr5p6y'
p564
aS'universitty orth'
p565
aS'wong michael'
p566
aS'william nagel'
p567
aS'paul brady'
p568
aS'edwards scott'
p569
aS'cathryn blum'
p570
aS'geoffrey'
p571
aS'lok'
p572
aS'snyder'
p573
aS'carshare'
p574
aS'joseph'
p575
aS'downey'
p576
aS'cohen sqft malia'
p577
aS'matthew emily e lloyd fedex'
p578
aS'jang'
p579
aS'pessoa joao antiochca'
p580
aS'michael jeff'
p581
aS'nickisha stephenson'
p582
aS'williamson'
p583
aS'redmond'
p584
aS'aqp'
p585
aS'lemmon'
p586
aS'kristian'
p587
aS'rpp stree'
p588
aS'james henry'
p589
aS'wong sonia'
p590
aS'elliott isenberg'
p591
aS'tubman ryan'
p592
aS'homeownership'
p593
aS'gervais harris alain sruvey'
p594
aS'miguel'
p595
aS'pl'
p596
aS'yearbuilt'
p597
aS'farrar'
p598
aS'seneca'
p599
aS'taylor'
p600
aS'johnny'
p601
aS'beatrice'
p602
aS'overpayment harris'
p603
aS'chaz'
p604
aS'campos david'
p605
aS'pfister'
p606
aS'steuart'
p607
aS'stephen sprague'
p608
aS'shannon'
p609
aS'lebel alex'
p610
aS'francisco'
p611
aS'deanna muni moore'
p612
aS'martinez giovanni'
p613
aS'fazil'
p614
aS'lola'
p615
aS'jung'
p616
aS'gwen terpstra'
p617
aS'rex francisco san andrew'
p618
aS'daly'
p619
aS'jane kim'
p620
aS'airbed'
p621
aS'disbaled serbia'
p622
aS'nguyen francis'
p623
aS'ortiz'
p624
aS'ronald mcdonald'
p625
aS'burt herman'
p626
a.