(lp0
Vcrime
p1
aVstreets
p2
aVshapefile
p3
aVstreet
p4
aVparking
p5
aVcensus
p6
aVbike
p7
aVbusiness
p8
aVbuilding
p9
aVwater
p10
aVneighborhood
p11
aVparks
p12
aVpopulation
p13
aV311
p14
aVtraffic
p15
aVbicycle
p16
aVmuni
p17
aVparcel
p18
aVincome
p19
aVfire
p20
aVhousing
p21
aVschool
p22
aVrent
p23
aVbart
p24
aVzoning
p25
aVland use
p26
aVneighborhoods
p27
aVbus
p28
aVgis
p29
aVparcels
p30
aVhomeless
p31
aVelevation
p32
aVfood
p33
aVrestaurant
p34
aVbuildings
p35
aVsan francisco
p36
aVboundary
p37
aVpipeline
p38
aVroads
p39
aVpolice
p40
aVschools
p41
aVpark
p42
aVaddress
p43
aVtransit
p44
aVbudget
p45
aVassessor
p46
aVtree
p47
aVtransportation
p48
aVtaxi
p49
aVsfmta
p50
aVrestaurants
p51
aVbuilding footprints
p52
aVproperty
p53
aVcity
p54
aVtrees
p55
aVpedestrian
p56
aVconstruction
p57
aVhealth
p58
aVbusinesses
p59
aVshapefiles
p60
aVbridge
p61
aVblock
p62
aVeducation
p63
aVbusiness license
p64
aVbay area
p65
aVdistrict
p66
aVgraffiti
p67
aVbuilding permits
p68
aVbuilding footprint
p69
aVstreet cleaning
p70
aVroad
p71
aVsfpd
p72
aVpermit
p73
aVcensus tract
p74
aVsewer
p75
aVblocks
p76
aVnoise
p77
aVcar
p78
aVmap
p79
aVcity boundary
p80
aVhospital
p81
aVdistricts
p82
aVairport
p83
aVzip code
p84
aVtopography
p85
aVbusiness licenses
p86
aVopen space
p87
aVaffordable housing
p88
aVcontour
p89
aVaccidents
p90
aVreal estate
p91
aVpermits
p92
aVeviction
p93
aVbasemap
p94
aVparking meter
p95
aVsfo
p96
aValcohol
p97
aVsalary
p98
aVaerial
p99
aVparking meters
p100
aVdemographics
p101
aVshoreline
p102
aVaccident
p103
aVcampaign finance
p104
aVflood
p105
aVair
p106
aVtax
p107
aVzip
p108
aVdemographic
p109
aVcontours
p110
aVevictions
p111
aVenergy
p112
aVassessment
p113
aVweather
p114
aVage
p115
aVcenterline
p116
aVbus stops
p117
aVart
p118
aVcensus shapefile
p119
aVemployment
p120
aVstreets of san francisco
p121
aVfootprint
p122
aVplanning
p123
aVaddresses
p124
aVair quality
p125
aVcenterlines
p126
aVbay
p127
aVsidewalk
p128
aVcensus tracts
p129
aVopen spaces
p130
aVbike lanes
p131
aVcancer
p132
aVhotel
p133
aVlanduse
p134
aVlobbyist
p135
aVzip codes
p136
aVwaste
p137
aVcity lots
p138
aVcoffee
p139
aVbusiness registration
p140
aVdevelopment pipeline
p141
aVpublic schools
p142
aVlibrary
p143
aVboundaries
p144
aVdem
p145
aVbars
p146
aVcensus 2010
p147
aVfacilities
p148
aVstreet sweeping
p149
aVpoverty
p150
aVbuilding permit
p151
aVcensus 2000
p152
aVhospitals
p153
aVhousing inventory
p154
aVcleaning
p155
aVmeter
p156
aVcensus block
p157
aVbase map
p158
aVdensity
p159
aVwind
p160
aVpopulation density
p161
aVbike parking
p162
aVcnn
p163
aVsidewalks
p164
aVtopo
p165
aVbike network
p166
aVclimate
p167
aVkml
p168
aVcurb
p169
aV460
p170
aVbusiness account number
p171
aVvacant
p172
aVpublic transportation
p173
aVhighway
p174
aVbikeway
p175
aVretail
p176
aVcrimes
p177
aVproperty assessment
p178
aVuber
p179
aVrecreation
p180
aVemployee
p181
aVjson
p182
aVtourism
p183
aVparking tickets
p184
aV911
p185
aVrace
p186
aVcad
p187
aVsoil
p188
aVchildren
p189
aVcurbs
p190
aVcity limits
p191
aVpolice districts
p192
aVsales
p193
aVpublic
p194
aVstreet parking
p195
aVchinatown
p196
aVzoning districts
p197
aVbuilding height
p198
aVtickets
p199
aVintersections
p200
aVcommunity
p201
aVcaltrain
p202
aVcsv
p203
aVcitation
p204
aVshore
p205
aVsupervisor
p206
aVfood truck
p207
aVheight
p208
aVrental
p209
aVhuman waste
p210
aVcollege
p211
aVlight
p212
aVjob
p213
aVaddress locator
p214
aVcommercial
p215
aVearthquake
p216
aVcampaign
p217
aVban
p218
aVtow
p219
aVvegetation
p220
aVlots
p221
aVsurvey
p222
aVresidential
p223
aVrail
p224
aVbridges
p225
aVhiv
p226
aVshelter
p227
aVregistered business
p228
aVpoop
p229
aVfootprints
p230
aVcrime data
p231
aVfire incidents
p232
aVimagery
p233
aV2015
p234
aVvehicle
p235
aVtrail
p236
aVshp
p237
aVbase
p238
aVhistoric
p239
aVcomplaints
p240
aVbay area general
p241
aVstreet names
p242
aVtenderloin
p243
aVtract
p244
aVinventory
p245
aVport
p246
aVslope
p247
aVopen business
p248
aVsfpd incidents
p249
aVwater bodies in san francisco
p250
aVfilm
p251
aVhomicide
p252
aVbicycle parking
p253
aVliquor
p254
aVincidents
p255
aVintersection
p256
aVorthophoto
p257
aVfood trucks
p258
aVlibraries
p259
aVland
p260
aVvendor
p261
aVmobile food
p262
aVgarbage
p263
aVprice
p264
aVbuilding heights
p265
aVbus stop
p266
aVgps
p267
aVhotels
p268
aVsf shoreline and islands
p269
aVlocation
p270
aVortho
p271
aV2014
p272
aVinclusionary housing
p273
aVethnicity
p274
aVshape file
p275
aVstreet light
p276
aVevents
p277
aVbike lane
p278
aVsffind neighborhoods
p279
aVroute
p280
aVcontracts
p281
aVinsurance
p282
aVviolations
p283
aVmission bay
p284
aVdevelopment
p285
aVrent control
p286
aVgreen
p287
aVstreet centerlines
p288
aVplanning neighborhoods
p289
aVstreet trees
p290
aVviolation
p291
aVbayview
p292
aVchildcare
p293
aVlidar
p294
aVbus routes
p295
aVcensus blocks
p296
aV3d
p297
aVcommunity gardens
p298
aVcable
p299
aVanimal
p300
aVregistered businesses
p301
aVboard of supervisors
p302
aVspeed
p303
aVpopos
p304
aVsfpark
p305
aVfire stations
p306
aVcalls for service
p307
aVshoreline shapefile
p308
aVpublic space
p309
aVgrocery
p310
aVairbnb
p311
aVtraffic counts
p312
aVsfshore
p313
aVambulance
p314
aVasthma
p315
aVfreeway
p316
aVsffd
p317
aVpollution
p318
aVsalaries
p319
aVmedian income
p320
aVinclusionary
p321
aVblock group
p322
aVtrails
p323
aVsupervisor districts
p324
aVutilities
p325
aVhouse
p326
aVferry
p327
aVproperty tax
p328
aVpresidio
p329
aVutility
p330
aVmuseum
p331
aVaffordable
p332
aVcollision
p333
aVgreen space
p334
aVmeters
p335
aVdisabled
p336
aVstclines
p337
aVhighways
p338
aVbikes
p339
aVwater bodies
p340
aVdpw
p341
aVtreasure island
p342
aVjobs
p343
aVsolar
p344
aVtrash
p345
aVincident
p346
aVbike share
p347
aVstreet map
p348
aVcompensation
p349
aVocean
p350
aVwifi
p351
aVticket
p352
aVlicense
p353
aVpublic housing
p354
aVtaz
p355
aVhomelessness
p356
aVcitations
p357
aVspending
p358
aVmta
p359
aVtraffic density
p360
aVcoast
p361
aVcolleges
p362
aVshape
p363
aVtow zone
p364
aVcensus 2000 tracts (no water)
p365
aVgarden
p366
aVbusiness registration certificate
p367
aVnetwork
p368
aVbay area - general
p369
aVwireless
p370
aVsfmta bikeway network
p371
aVinternet
p372
aV.shp
p373
aVpublic art
p374
aVcrime incidents
p375
aVinspection
p376
aVbuilding age
p377
aVcounty
p378
aVsanfrancisco.gdb
p379
aVunemployment
p380
aVtemperature
p381
aVsupervisor district
p382
aVreal time
p383
aVhousing prices
p384
aVarticle 11
p385
aVcity survey
p386
aVdeath
p387
aVbicycle accidents
p388
aVtopographic
p389
aVzipcode
p390
aVseismic
p391
aVmurder
p392
aVfire department
p393
aVelectricity
p394
aVtraffic count
p395
aVparcel data
p396
aVemergency
p397
aVproperty assessment roll
p398
aVlyft
p399
aVstormwater
p400
aVtheft
p401
aVproperty value
p402
aVmovie
p403
aVfarmers market
p404
aVterrain
p405
aVmedical
p406
aVform 700
p407
aVelectricity use
p408
aVtraffic accidents
p409
aVcity blocks
p410
aVhousehold income
p411
aVapn
p412
aVpbc
p413
aVsan francisco crime
p414
aVdbi
p415
aVrain
p416
aVfire station
p417
aVbernal lot size
p418
aVright of way
p419
aVcitylots
p420
aV311 cases
p421
aVchild
p422
aVbenches
p423
aVopen
p424
aVchurch
p425
aVarticle 10
p426
aVcrime rate
p427
aVsro
p428
aVcamera
p429
aVcensus 2000 blocks (no water)
p430
aVpayroll
p431
aVparking lots
p432
aVberkeley
p433
aVtelegraph hill
p434
aVdui
p435
aVsomething
p436
aVarrests
p437
aVspeed limit
p438
aVtruck
p439
aVapartment buildings
p440
aVimage
p441
aVsweeping
p442
aVinjury
p443
aVnorth beach
p444
aVwatershed
p445
aVcafe
p446
aVsf solar map
p447
aVjob density
p448
aVchina
p449
aVcar ownership
p450
aVobesity
p451
aVhydrology
p452
aVpaving
p453
aVemployees
p454
aVmarket
p455
aVoakland
p456
aVsanfrancisco
p457
aVborder
p458
aVdog
p459
aVparking citation
p460
aVauto
p461
aVstreets shapefile
p462
aVcase
p463
aVcomplaint
p464
aVvendors
p465
aVstreet of san francisco
p466
aVapi
p467
aVtech
p468
aVvote
p469
aVair pollution
p470
aVchild care
p471
aVbay trail
p472
aVparking ticket
p473
aVpolice district
p474
aVsfusd
p475
aVcensus 2000 tracts
p476
aVzone
p477
aVfilm locations
p478
aVstation
p479
aVparking citations
p480
aVlandmark
p481
aVada
p482
aVeas
p483
aVyear built
p484
aVgeojson
p485
aVfood inspection
p486
aVethics
p487
aVfeces
p488
aVdpt_bike_network
p489
aVdrug
p490
aVairports
p491
aVgeology
p492
aVenvista
p493
aVcensus 2000 blocks
p494
aVphoto
p495
aVbicycle accident
p496
aVuniversity
p497
aVtrimmers
p498
aVoutline
p499
aVfinance
p500
aVtrain
p501
aVelection
p502
aVcontract
p503
aVspeeding
p504
aVhazard
p505
aVlobby
p506
aVassessment roll
p507
aVsocial
p508
aVfte
p509
aVmarriage
p510
aVprecinct
p511
aVbird
p512
aVbank
p513
aVcab
p514
aVbus lines
p515
aVbar
p516
aVcable car
p517
aVridership
p518
aVrevenue
p519
aVhousing price
p520
aVpolice stations
p521
aVtravel
p522
aVwine
p523
aVlgbt
p524
aVflooding
p525
aVopen business locations
p526
aVcenter lines
p527
aVdumping
p528
aVvendor payments
p529
aVsf shore
p530
aVpipeline 2015
p531
aVsan francisco streets
p532
aVchicago
p533
aVcoastal
p534
aVbiz point
p535
aVroad map
p536
aVpipe
p537
aVrecycling
p538
aVcampaign consultant
p539
aVstreet network
p540
aVstreet centerline
p541
aVunion square
p542
aVlot
p543
aVcity features
p544
aVbench
p545
aVbiking
p546
aVbike theft
p547
aVmovies
p548
aVpublic transit
p549
aVstations
p550
aVcensus2000
p551
aVservices
p552
aVliquefaction
p553
aVtoilet
p554
aVsweep
p555
aVsfpuc
p556
aV94110
p557
aVstreetlight
p558
aVtechnology
p559
aVstreet shapefile
p560
aVplanning districts
p561
aVadvisories
p562
aVgarage
p563
aVtraffic accident
p564
aVtobacco
p565
aVallergies
p566
aVon street parking
p567
aVuniversities
p568
aVgoogle
p569
aVarterial
p570
aVbathroom
p571
aVlobbyists
p572
aVgis data
p573
aVtransit stops
p574
aVroutes
p575
aVagriculture
p576
aVform 460
p577
aVbus accidents
p578
aVbike shapefile
p579
aVtransport
p580
aVlobbyist activity
p581
aVhigh injury
p582
aVlatitude
p583
aVdata catalog
p584
aVmuseums
p585
aV2010 census
p586
aVopen spaces city planning
p587
aVcrime map
p588
aVpole
p589
aVavenida epitacio pessoa ipanema rio de janeiro
p590
aVparcel map
p591
aVstorm
p592
aVdataset inventory
p593
aVcastro
p594
aVaddress points
p595
aVhealth care
p596
aV2010
p597
aVhealth score
p598
aVbike route
p599
aVwater usage
p600
aVuse
p601
aVbusiness locations
p602
aVinspections
p603
aVeconomic
p604
aVbusines
p605
aVtwitter
p606
aVcafe bakery
p607
aVcollisions
p608
aVfarmers markets
p609
aVactive business
p610
aVmaher
p611
aVelections
p612
aVraster
p613
aVchinese
p614
aVillegal dumping
p615
aVcanopy
p616
aVtraffic volume
p617
aVcannabis
p618
aVowner
p619
aVcity limit
p620
aVrestaurant inspection
p621
aVclean
p622
aVspeed limits
p623
aVsf development pipeline
p624
aVmaps
p625
aVgeneral plan
p626
aVrent board
p627
aVbusiness district
p628
aVlandmarks
p629
aVcoastal zone
p630
aVsea level rise
p631
aVcurb ramp
p632
aVproperty owner
p633
aVcities
p634
aVavl
p635
aVpavement
p636
aVbayview hunters point
p637
aVdata
p638
aVgdp
p639
aVat
p640
aVbuilding outline
p641
aVsfdph
p642
aVcensus 2000 block group
p643
aVemployee compensation
p644
aVbeach
p645
aVrestaurant inspections
p646
aVsecurity
p647
aVschedule e
p648
aVcost
p649
aVfires
p650
aVlandslide
p651
aVmuni routes
p652
aVstreet lights
p653
aVbus route
p654
aVsf311
p655
aVwind monitoring
p656
aVnew york
p657
aVhome
p658
aVpublic works
p659
aVliquor store
p660
aVdrainage
p661
aVenvironment
p662
aVbrownfield
p663
aVcommunity center
p664
aVsan francisco shoreline
p665
aVaffordability
p666
aVstreet sweep
p667
aVproperty values
p668
aVsubway
p669
aVcity boundaries
p670
aVexpenditures
p671
aVcenter line
p672
aVbusiness location
p673
aVvmt
p674
aVeconomy
p675
aVtree canopy
p676
aVarea
p677
aVmobile
p678
aVpipeline 2012
p679
aVhealthcare
p680
aVroad network
p681
aVlights
p682
aVdigital elevation model
p683
aVbaker places
p684
aVparking restrictions
p685
aVperformance
p686
aVcctv
p687
aVbuilding outlines
p688
aVclinic
p689
aVtourist
p690
aVstreet tree
p691
aVsanitation
p692
aVtraffic tickets
p693
aVplant
p694
aVprostitution
p695
aVbasil thai
p696
aVuniversity of san francisco
p697
aVworkers
p698
aVpoint
p699
aVhousehold
p700
aVfacility
p701
aValtitude
p702
aVtime
p703
aVparklet
p704
aVpreservation
p705
aVparklets
p706
aVwater quality
p707
aVeviction notices
p708
aVpublic health
p709
aVcounties
p710
aVbikeway network
p711
aVchurches
p712
aVems
p713
aVbirth
p714
aVnonprofit
p715
aVmuni stops
p716
aVmaintenance
p717
aVcell
p718
aVbenchmark
p719
aVpothole
p720
aVcar sharing
p721
aVsan francisco boundary
p722
aVlobbying
p723
aVstreet center
p724
aVshop
p725
aVtraffic lights
p726
aVcommute
p727
aVprecipitation
p728
aV2000
p729
aVrecology
p730
aVshooting
p731
aVstreet maps
p732
aVcases
p733
aVcbd
p734
aVgentrification
p735
aVlow income
p736
aVtracts
p737
aV460 e
p738
aVprecincts
p739
aVcertified payroll
p740
aVaspect
p741
aVgolden gate
p742
aVanimals
p743
aVmotorcycle
p744
aVvacancy
p745
aVgardens
p746
aVcell phone
p747
aVtax lots
p748
aVtest
p749
aVsffacs
p750
aVgrocery stores
p751
aVcommuting
p752
aVnon profit
p753
aVcoastline
p754
aVbuisness
p755
aVpipeline 2013
p756
aVsan francisco map
p757
aVbike accidents
p758
aVrestroom
p759
aVrailroad
p760
aVvision zero
p761
aVdrain
p762
aVyouth
p763
aVprices
p764
aVaadt
p765
aVnames
p766
aVstreet sweeping schedule
p767
aVadt
p768
aVsf shoreline
p769
aVappeals
p770
aVfiber
p771
aVcondominium
p772
aVbuilding construction
p773
aVethnic
p774
aVriver
p775
aVburglary
p776
aVpolice station
p777
aVsmall business
p778
aVbelow market rate
p779
aVmedian rent
p780
aVfood inspections
p781
aVmortgage
p782
aVuncashed
p783
aVbikeshare
p784
aVcity outline
p785
aVcounty boundary
p786
aVparcel owner
p787
aVboard
p788
aVparking signs
p789
aVcreek
p790
aVparking lot
p791
aVsweeper
p792
aVregistered business locations
p793
aVmission district
p794
aVfoodtruck
p795
aVpublic library
p796
aVsf streets
p797
aVsuicide
p798
aV.csv
p799
aVpci
p800
aVmetro
p801
aVinjuries
p802
aVparking violations
p803
aVcriminal
p804
aVgolden gate bridge
p805
aVsearch datasf
p806
aVcrime statistics
p807
aVsports
p808
aVbuilding use
p809
aVland cover
p810
aVdeveloper
p811
aVdog patch
p812
aVrealtor
p813
aVwalk
p814
aVboundry
p815
aVgrocery store
p816
aVbase mao
p817
aVlicenses
p818
aVbay area counties
p819
aVhabitat
p820
aVsan francisco shapefile
p821
aVpipeline 2014
p822
aVzipcodes
p823
aVfuel
p824
aVprivate schools
p825
aVstop
p826
aVpbc code
p827
aVappraisal roll
p828
aVentitlements
p829
aVmarijuana
p830
aVbasemap street centerlines shapefile
p831
aVgtfs
p832
aVgay
p833
aVrape
p834
aVcity facilities
p835
aVnews
p836
aVcancer risk
p837
aVbicycle theft
p838
aVmission
p839
aVtow away
p840
aVtraffic light
p841
aVownership
p842
aVpeople
p843
aVfog
p844
aVpublic parks
p845
aVresturant
p846
aVfreeways
p847
aVcases by channel
p848
aVstartup
p849
aVprojects
p850
aV2013
p851
aVmanhole
p852
aVtaxes
p853
aVdiabetes
p854
aVassess
p855
aVsan francisco county
p856
aVsfopenbook
p857
aVsport
p858
aVcensus2000_blk_nowater
p859
aVevent
p860
aVregistered
p861
aVbike routes
p862
aVentertainment
p863
aVbaytrail
p864
aVsea level
p865
aVnaics
p866
aVcompanies
p867
aVwaterfront
p868
aVgrid
p869
aVbay area zip codes
p870
aVblock groups
p871
aVhomeless shelter
p872
aVexcavation
p873
aVsales tax
p874
aVindustrial
p875
aVco2
p876
aVcost of living
p877
aVdeaths
p878
aVreal-time
p879
aVconference
p880
aVhome sales
p881
aVheat
p882
aVsenior
p883
aVmental health
p884
aVcatalog
p885
aVcity map
p886
aVlottery
p887
aVsexual assault
p888
aVpdf parcel
p889
aVservice requests
p890
aVbtod
p891
aVfema
p892
aVland value
p893
aVworkforce
p894
aVbike route network
p895
aVpolice department
p896
aVcommute time
p897
aVrecreation and parks
p898
aVpuc
p899
aVtaylor
p900
aVpier
p901
aVbasemap street centerlines
p902
aVorthophotos
p903
aVdogs
p904
aVschedule a
p905
aVpotholes
p906
aVcars
p907
aVexcelsior
p908
aV460 forms schedule a
p909
aVpublic school
p910
aVcheckbook
p911
aVpurchase
p912
aVgrade
p913
aVcrime shapefile
p914
aVconcealed weapons permits
p915
aVrecreation centers
p916
aVdpt bike network
p917
aVcandidate name
p918
aVcongestion
p919
aVdeed
p920
aVhousing code violations
p921
aVhealth facilities
p922
aVbusiness registration certificate number
p923
aVbay outline
p924
aVsan francisco outline
p925
aVimmigration
p926
aVhouse price
p927
aVopen spaces - city planning
p928
aVnational parks
p929
aVsf boundary
p930
aVabandoned
p931
aVsun
p932
aV311 case data
p933
aVcondo
p934
aVresiliency
p935
aVoccupation
p936
aVwomen
p937
aVdwg
p938
aVgrafitti
p939
aVmusic
p940
aVmotorcycle parking
p941
aVtraffic signals
p942
aVfilms
p943
aVsolar map
p944
aVsale
p945
aVpublic safety
p946
aVbuyouts
p947
aVcivic center
p948
aVsf flower mart
p949
aVbay area cities
p950
aVshape files
p951
aVstops
p952
aVenforcement
p953
aVbenchmarking
p954
aVclaims
p955
aVcentral subway
p956
aVforeclosure
p957
aVbart stations
p958
aVprobation
p959
aVplanning cases
p960
aVhomicides
p961
aVstreet closures
p962
aVwater use
p963
aVbus line
p964
aVbusiness certificate
p965
aVarrest
p966
aVsupervisorial districts
p967
aVneighborhood boundaries
p968
aVrecycle
p969
aVexternal datasets
p970
aVmurders
p971
aVellis
p972
aVbcdc
p973
aVshelters
p974
aVproperty records
p975
aVimpervious
p976
aVvalue
p977
aVheights
p978
aV3d building
p979
aVurban tree
p980
aVmarket street
p981
aVstreet center lines
p982
aVtowing
p983
aVdisabled parking
p984
aVtoilets
p985
aVincomes
p986
aVmeeting time
p987
aVcar theft
p988
aVgang
p989
aVfloodplain
p990
aVarcgis
p991
aVblock lot
p992
aVrent prices
p993
aVbusiness map
p994
aVdiana lerner
p995
aVform 700 schedules
p996
aVclassification
p997
aVdisaster
p998
aVjuvenile
p999
aVbay area shapefile
p1000
aVhousing authority
p1001
aVcampaign contributions
p1002
aVmap of crimes incidents
p1003
aVno parking
p1004
aVplan
p1005
aVafrican american health
p1006
aVgolf
p1007
aVequity
p1008
aVreligion
p1009
aVcity employees
p1010
aVtunnel
p1011
aVweb
p1012
aVwetlands
p1013
aVaffordable housing units
p1014
aVhistorical
p1015
aVvoting
p1016
aVpedestrian injury
p1017
aVcastro sf
p1018
aVparking permit
p1019
aVspecial use districts
p1020
aVvacant lots
p1021
aVsffind
p1022
aVdate
p1023
aVhealth scores
p1024
aVaviation
p1025
aVhuman trafficking
p1026
aVlitter
p1027
aVjail
p1028
aVtickets parking
p1029
aVbetterdoctor
p1030
aVclimate and health
p1031
aVspending and revenue
p1032
aVcommercial zones
p1033
aVgas
p1034
aVedge of pavement
p1035
aVstories
p1036
aVprocurement
p1037
aVstores
p1038
aVoffices
p1039
aVcandidates
p1040
aVcalifornia census tracts
p1041
aVviolent crime
p1042
aVgolden gate park
p1043
aVcourt
p1044
aVelectric
p1045
aVcrash
p1046
aVsf elevation
p1047
aVbeauty
p1048
aVcrime rates
p1049
aVsan francisco public schools
p1050
aVloading zones
p1051
aVparticulate
p1052
aVcarbon
p1053
aVsign
p1054
aVsan francisco street
p1055
aVbay bridge
p1056
aVwater consumption
p1057
aVmiss saigon
p1058
aVculure and recreation
p1059
aVbicycle lanes
p1060
aV1013343
p1061
aVsex
p1062
aVpdr
p1063
aVellis act
p1064
aVparking census
p1065
aVexcrement
p1066
aV311 calls
p1067
aVhomeless population
p1068
aVmuni lines
p1069
aVschool zones
p1070
aVsoma
p1071
aVaccessibility
p1072
aVhistoric district
p1073
aVcommercial building
p1074
aVcommunity centers
p1075
aVcensus 2000 block
p1076
aVtraffic noise
p1077
aVmode share
p1078
aVpets
p1079
aVbart station
p1080
aVwork
p1081
aVcrime classification
p1082
aVshort term rental
p1083
aVbay area street
p1084
aVdiversion
p1085
aValameda
p1086
aVstreet furniture
p1087
aVarea plans
p1088
aVsfpd crime incident reporting system
p1089
aVstreet evaluation
p1090
aVlevis
p1091
aVfilbert 1880
p1092
aVfitness
p1093
aVbeer
p1094
aVbike thefts
p1095
aVsatisfaction
p1096
aVcurb ramps
p1097
aValcatraz
p1098
aVtide
p1099
aVflood zone
p1100
aVparking violation
p1101
aVanalysis neighborhoods
p1102
aVflight
p1103
aVcommunity garden
p1104
aVdaycare
p1105
aVunits
p1106
aVyerba buena gardens
p1107
aVactive business locations
p1108
aVcar thifte
p1109
aVtelecom
p1110
aVbasketball
p1111
aVboston
p1112
aVnatural
p1113
aVattraction
p1114
aVwalking
p1115
aVfire station locations
p1116
aVwastewater
p1117
aVconnectivity
p1118
aVsan francisco crime classification
p1119
aVarson
p1120
aVstreetlights
p1121
aVnumber of tickets opened
p1122
aVtidal
p1123
aVfirms
p1124
aVblocklot
p1125
aVtreasurer and tax collector
p1126
aVeducation rate
p1127
aVcalworks
p1128
aVwetland
p1129
aVgeocode
p1130
aVyear
p1131
aVrio de janeiro
p1132
aVchinese food
p1133
aVcity property
p1134
aVcycling
p1135
aVcomunity garden
p1136
aVbike path
p1137
aVbusinesses registered in san francisco
p1138
aVcity college
p1139
aVneighborhood shapefile
p1140
aVcalifornia register
p1141
aVbuilding code violations
p1142
aVchildren in poverty
p1143
aVyelp
p1144
aVdog parks
p1145
aVsfpd incident
p1146
aVvoter
p1147
aVexceptions
p1148
aVminority
p1149
aVarchitecture
p1150
aVsf street sweeping schedule
p1151
aVemployment rate
p1152
aVrealtor_neighborhoods
p1153
aVsupervisorial
p1154
aVsensor
p1155
aVcasale
p1156
aV94124
p1157
aVstreet center line
p1158
aVannexations
p1159
aVwashington street usps zip code 94118
p1160
aVcollection
p1161
aVdisease
p1162
aVunified school disctrict
p1163
aVtoxic
p1164
aVcitywide performance measurement
p1165
aVcare not cash
p1166
aVmin. wage ord.
p1167
aVhealth inspection
p1168
aVaccepted streets
p1169
aVapartment
p1170
aVcity district shapefile
p1171
aVproperty information map
p1172
aVbicycle network
p1173
aVsan francisco neighborhoods
p1174
aVbusiness search
p1175
aVvolume
p1176
aVtraffic calming
p1177
aVingleside
p1178
aVrenter
p1179
aVoperate business
p1180
aVpictometry
p1181
aVsanta clara
p1182
aVsenior care services
p1183
aVneighbourhood
p1184
aVbuilding inspections
p1185
aVbetter streets plan
p1186
aVcrime 2015
p1187
aVcrime 2014
p1188
aVvan ness
p1189
aVvalle de ninos
p1190
aVsfpd reported incidents
p1191
aVcrosswalk
p1192
aVexisting commercial buildings
p1193
aVsf neighborhoods
p1194
aVsfo customer
p1195
aVcode
p1196
aVmeter rate
p1197
aVgrafiti
p1198
aVramp
p1199
aVgovernment
p1200
aVschedule
p1201
aVparking permits
p1202
aVcount
p1203
aVstreet corners
p1204
aVindia
p1205
aVsteven holland
p1206
aVcensus data
p1207
aVsan francisco state university
p1208
aVproperties
p1209
aV"campaign finance"
p1210
aVwatersheds
p1211
aVstreet sweeper
p1212
aVstreet permit
p1213
aVcampaign committees
p1214
aVhistory
p1215
aVspecies
p1216
aVaddresses with units
p1217
aVsafety
p1218
aVcity parcels
p1219
aVassessors roll
p1220
aVhuman resources
p1221
aVpermit parking
p1222
aValcohol outlet
p1223
aVarts commission
p1224
aVdata inventory
p1225
aVproperty information
p1226
aVtransient occupancy tax
p1227
aVdisability
p1228
aVsewer lines
p1229
aVpoints
p1230
aVvisitor
p1231
aVfillmore
p1232
aVsoils
p1233
aVhayes valley
p1234
aVcouncil
p1235
aVsan francisco bay area
p1236
aVcalifornia
p1237
aVsafer grant
p1238
aVcity owned
p1239
aVinfrastructure
p1240
aVbmi
p1241
aVparks and open spaces
p1242
aVbuilding inspection
p1243
aVpersonnel
p1244
aVamenities
p1245
aVresponse
p1246
aVpower lines
p1247
aVmuni metro
p1248
aVbike racks
p1249
aVitaly
p1250
aVprevention
p1251
aVpet
p1252
aVenvironmental
p1253
aVblock group 2010
p1254
aVtime series
p1255
aVozone
p1256
aVrisk
p1257
aVschool districts
p1258
aVcitylot
p1259
aVsatellite
p1260
aV311 service requests
p1261
aVsenior center
p1262
aVtravel time
p1263
aVbathymetry
p1264
aVconsumer
p1265
aVcalls
p1266
aVhomeownership
p1267
aVweight
p1268
aVstreet signs
p1269
aVdemography
p1270
aVsuperior court
p1271
aVbusiness registration certificates
p1272
aVcommunity based organizations
p1273
aVelevations
p1274
aVparks shapefile
p1275
aVsmf
p1276
aVstate employee
p1277
aVboiler
p1278
aVbicycles
p1279
aVdefecation
p1280
aVhousing pipeline
p1281
aVseismic hazard
p1282
aVdrinking water
p1283
aVmap of san francisco
p1284
aVhercules
p1285
aVceqa
p1286
aVwildlife
p1287
aVmuni shapefile
p1288
aVcalifornia county
p1289
aVconstruction list
p1290
aVtax revenue
p1291
aVdatasets
p1292
aVpublic transport
p1293
aVsoftware
p1294
aVdogpatch
p1295
aVplanning applications
p1296
aV311 case
p1297
aVsouth sf
p1298
aVdeath certificates
p1299
aVgun
p1300
aVneighbourhoods
p1301
aVmarina
p1302
aVreal estate sales
p1303
aVdrunk driving
p1304
aVclass code
p1305
aVdaily
p1306
aVpedestrian safety
p1307
aVfleet
p1308
aVbuilding shapefile
p1309
aVcell tower
p1310
aVpipeline 2011
p1311
aVfilm location
p1312
aVparcel numbers
p1313
aVgender
p1314
aVhydro
p1315
aVplayground
p1316
aVculture
p1317
aVemployment rate san francisco
p1318
aVsan_francisco
p1319
aVrevenue tax
p1320
aVmortality
p1321
aVsingle room occupancy
p1322
aVtreatment
p1323
aVasian
p1324
aVactive
p1325
aVbirch
p1326
aVbayarea_bridges
p1327
aVjurisdiction
p1328
aVmoratorium
p1329
aVdomestic violence
p1330
aVsocio economic
p1331
aVsquare footage
p1332
aVchannel
p1333
aVsummary
p1334
aVmiles
p1335
aVbathrooms
p1336
aVresturants
p1337
aVmuni stations
p1338
aVdispensary
p1339
aVpublished data
p1340
aV2014 housing inventory
p1341
aVelevation contours
p1342
aVcity-owned
p1343
aVaircraft
p1344
aVspend
p1345
aVsewer mains
p1346
aVcity council
p1347
aVon-street parking
p1348
aVprivate
p1349
aVdemograph
p1350
aVaverage daily traffic
p1351
aVrent price
p1352
aValleys
p1353
aVannual revenue
p1354
aVbulb
p1355
aVtax parcels
p1356
aVflood plain
p1357
aVhealth inspections
p1358
aVphone
p1359
aVcommercial buildings
p1360
aVlbe
p1361
aVsan francisco basemap
p1362
aVdrugs
p1363
aVsan francisco building
p1364
aVcarshare
p1365
aVrow
p1366
aVresonance
p1367
aVbusiness license lookup
p1368
aVschool district
p1369
aVport jurisdiction
p1370
aVfire district
p1371
aVsewer issues
p1372
aVmarkets
p1373
aVbike rentals
p1374
aVcaltrans
p1375
aVcrime incident
p1376
aVplaza
p1377
aVbanking
p1378
aVclosed
p1379
aVpermit consultant
p1380
aVtotal housing units
p1381
aVinformation security
p1382
aVsan fransisco
p1383
aVcity owned property
p1384
aVparking regulations
p1385
aVbids contracts
p1386
aVhistoric zoning
p1387
aVbusiness major
p1388
aVstreet tree list
p1389
aVhomeless shelters
p1390
aVamericas cup
p1391
aVdpw paving
p1392
aVvehicle ownership
p1393
aVsan francisco bay
p1394
aVtransit shapefile
p1395
aVfire districts
p1396
aVawss
p1397
aVgroundwater
p1398
aVwatering holes
p1399
aVcity hall
p1400
aVhillshade
p1401
aVwater main
p1402
aVstorefront political media
p1403
aV2010 census tracts
p1404
aVroll
p1405
aVassessors
p1406
aVcar accidents
p1407
aVhousing units
p1408
aVxem k trieu
p1409
aVoff-street parking
p1410
aVsan francisco boundaries
p1411
aVsfmta bikeway
p1412
aVpostal
p1413
aVpower
p1414
aVparking spot
p1415
aVparking zones
p1416
aVopen busienss
p1417
aVgeographic
p1418
aVgreen roofs
p1419
aVfppc
p1420
aVhydrant
p1421
aVbicycle count
p1422
aVrows matched
p1423
aVwater shapefile
p1424
aVgreen connections
p1425
aVinternet connectivity
p1426
aVstreet parking map
p1427
aVcar accident
p1428
aVaerial photo
p1429
aVemail
p1430
aVneighborhood map
p1431
aVlife expectancy
p1432
aVcity and county of san francisco
p1433
aVzoning map
p1434
aVsalon
p1435
aVstorm water
p1436
aVbrigitte wilson
p1437
aVcad files
p1438
aVparking spaces
p1439
aVsupervisors
p1440
aVcensus block 2000
p1441
aVrainfall
p1442
aVplanning areas
p1443
aVpesticide
p1444
aVdocument
p1445
aVexcel
p1446
aVrestrooms
p1447
aVproperty taxes
p1448
aVweb analytics
p1449
aVstarbucks
p1450
aVbike paths
p1451
aVparking fine
p1452
aVstclines_streets
p1453
aVpolygon
p1454
aVnan
p1455
aVcontamination
p1456
aVsocial media
p1457
aVcar share
p1458
aVoccupancy
p1459
aVpublic spaces
p1460
aVmaritime
p1461
aVbike network shapefile
p1462
aVvehicle counts
p1463
aVfire inspections
p1464
aVtotals for all rows matched
p1465
aVwater supply
p1466
aVlight rail
p1467
aVmetadata
p1468
aVbusiness certificates
p1469
aVgasoline
p1470
aVhigh crime rate shapefile
p1471
aVrows returned
p1472
aVbetter streets
p1473
aVship
p1474
aVtnc
p1475
aVmrsid
p1476
aVhandicap
p1477
aVstreet arcgis
p1478
aVdoctor
p1479
aVbusiness registry
p1480
aVlandfill
p1481
aVelevator
p1482
aVsan francisco facilities
p1483
aVlease
p1484
aVredevelopment
p1485
aVbikeways
p1486
aVblock map
p1487
aVbid
p1488
aVvehicles
p1489
aVbayview district
p1490
aVrivers
p1491
aVbody
p1492
aVlines
p1493
aVamericas best value inn
p1494
aVday care
p1495
aVpbc codes
p1496
aVliquor license
p1497
aVassesment
p1498
aVstreet use permits
p1499
aVshapefile bike
p1500
aVoffice space
p1501
aVparks and recreation
p1502
aVattractions
p1503
aVdistrict map
p1504
aVyamadaya
p1505
aVfault
p1506
aVcensus 2000 shapefile
p1507
aVbusiness portal
p1508
aVcompost
p1509
aVice cream
p1510
aVjakarta
p1511
aVcensus tracks
p1512
aVcivic art collection
p1513
aVresidential parking
p1514
aV6524-032
p1515
aVfood safety
p1516
aVuse code
p1517
aVpublic facilities
p1518
aVtreasure island crime
p1519
aVhigh injury corridors
p1520
aVbike accident
p1521
aVearthquakes
p1522
aVtopology
p1523
aVcode violation
p1524
aVsocrata
p1525
aVnoise complaints
p1526
aVhoa
p1527
aVcredit
p1528
aVservice
p1529
aVmap of
p1530
aVemploy
p1531
aVprison
p1532
aV3d model
p1533
aVbusiness permits
p1534
aV0151069
p1535
aVpassenger
p1536
aVtransportation 2015 map
p1537
aVsat
p1538
aVbusiness license list
p1539
aVairlines
p1540
aVramen yamadaya
p1541
aVpoi
p1542
aVgreen business
p1543
aV"land use"
p1544
aVannual bicycle count
p1545
aVstriping
p1546
aVtransit routes
p1547
aVcatholic churches
p1548
aVpark and open space
p1549
aVcommunity benefit district
p1550
aVtraffic injury
p1551
aVreal
p1552
aVcensus2010_blk_nowater
p1553
aVsex offender
p1554
aVrecorder
p1555
aVstock
p1556
aVpatient detail
p1557
aVtransit stop
p1558
aVtransit frequency
p1559
aVap 201 california llc
p1560
aVblock search
p1561
aVbike shape
p1562
aVgis shapefile
p1563
aVtraffic counts on van ness ave
p1564
aVassesor
p1565
aVneighborhood groups map
p1566
aVplanning neighborhood
p1567
aVsan mateo
p1568
aVborehole
p1569
aVaid
p1570
aVphysical
p1571
aVsan jose
p1572
aVdatum
p1573
aVnob hill
p1574
aVwater pipe
p1575
aVoutfall
p1576
aVzone id
p1577
aVtraffic transportation
p1578
aVwater related
p1579
aVnon-profit
p1580
aVcity boundary data
p1581
aVjane kim
p1582
aVmobile food truck
p1583
aVthe crew
p1584
aVzoning district
p1585
aVstreet structure
p1586
aVrealtor neighborhoods
p1587
aVgrant
p1588
aVcommunity challenge
p1589
aVtwister donut
p1590
aVfarm
p1591
aVpopulation by ethnicity
p1592
aVmedical marijuana
p1593
aVbay area water
p1594
aVrunning
p1595
aVaaron peskin
p1596
aVbuilding floor area
p1597
aVbattery
p1598
aVwarrant
p1599
aV311-abandoned
p1600
aVliquor stores
p1601
aVopen space shapefile
p1602
aVbuildings footprint
p1603
aVjob titles by classification
p1604
aVcounts
p1605
aVtraffic violation
p1606
aVedge
p1607
aVaids
p1608
aVbusiness liscense
p1609
aVwind speed
p1610
aVcnn changes
p1611
aVchinese immigrant women
p1612
aVsenior centers
p1613
aVhigh school
p1614
aVhealth insurance
p1615
aVhouse sales
p1616
aVpotrero hill
p1617
aVdowntown
p1618
aVfatalities
p1619
aVcommittee name mapping
p1620
aVlanguage
p1621
aVbusiness taxes
p1622
aVpopular baby name
p1623
aVproperty lines
p1624
aVshopping
p1625
aVmoh
p1626
aVemissions
p1627
aVtruck routes
p1628
aV2013 housing inventory
p1629
aVwages
p1630
aVstreet space
p1631
aVbusiness certifcates
p1632
aVbusiness registered
p1633
aVcity feature
p1634
aVperformance measure
p1635
aVmuni feedback
p1636
aVconsumption
p1637
aVhistoric preservation
p1638
aVraw data
p1639
aVlabor
p1640
aVrent burden
p1641
aVbusiness names
p1642
aVstreet name
p1643
aVturk
p1644
aVrestuarant
p1645
aVdataset
p1646
aVanti smoking
p1647
aVchanges
p1648
aVappraisal
p1649
aVcommunity resiliency
p1650
aVhigher education
p1651
aVenergy benchmarking
p1652
aVunclaimed funds
p1653
aVauto return platinum
p1654
aVpadmapper
p1655
aVbusiness tax
p1656
aVucsf
p1657
aVfauna
p1658
aVcase data
p1659
aVopen spaces  city planning
p1660
aVbussiness
p1661
aVtower
p1662
aVlegal
p1663
aVed lee
p1664
aVlighting
p1665
aVcases and business
p1666
aVflood zones
p1667
aVdata dictionary
p1668
aVcommute times
p1669
aVbryant street sewer repairs
p1670
aVcontractors
p1671
aVtraffic stops
p1672
aVproperty assessors roll
p1673
aVbart shapefile
p1674
aVpopulation growth
p1675
aVcontributions
p1676
aVbedrooms
p1677
aVnational register
p1678
aVfreight
p1679
aVcanarias
p1680
aVstreet grade
p1681
aVquality transmission
p1682
aVfed
p1683
aVparking availability
p1684
aVsharebetter sf
p1685
aVthomas angelo
p1686
aVhetch hetchy
p1687
aVstop sign
p1688
aVregistered business location
p1689
aVapps
p1690
aVsf outline
p1691
aVaccommodation
p1692
aVformula retail
p1693
aVcar number
p1694
aVpresidio shapefile
p1695
aVstadium
p1696
aVmunicipal
p1697
aVtransgender
p1698
aVconservation
p1699
aVsf
p1700
aV94114
p1701
aVbart stops
p1702
aVfire hydrants
p1703
aVlanes
p1704
aVhousing and buildings
p1705
aVdispatch
p1706
aVincome level
p1707
aV2009
p1708
aVdrug use
p1709
aVpickup
p1710
aVconstruction cost
p1711
aVbroadband
p1712
aVdating
p1713
aVcredit scoring
p1714
aVindian
p1715
aVcode violations
p1716
aVstreams
p1717
aVmedallion
p1718
aVandroid
p1719
aVcity parks
p1720
aVizmir
p1721
aV2011 herrera campaign contributions
p1722
aVplaces
p1723
aVcondition
p1724
aVinformation technology
p1725
aVsocioeconomic
p1726
aVbeach water
p1727
aVanalytics
p1728
aV2386j
p1729
aVretail food
p1730
aVbus terminals
p1731
aVbuilding histories
p1732
aVparcel zoning
p1733
aVbuilding value
p1734
aVurban
p1735
aVabandoned vehicle
p1736
aVcadastral
p1737
aVpool
p1738
aVvolunteer
p1739
aVlocal business
p1740
aVgovernment buildings
p1741
aVindonesia
p1742
aVmassage
p1743
aVstitt vs sfmta
p1744
aVjob titles
p1745
aVassembly districts
p1746
aVpoles
p1747
aVrecent graffiti reports
p1748
aVarterial streets
p1749
aVdog park
p1750
aVproperty sales
p1751
aVmode
p1752
aVla soleil
p1753
aVretirement homes
p1754
aVexpenditure
p1755
aVreport
p1756
aVbulk
p1757
aVcause of death
p1758
aVcustomer service
p1759
aVair traffic
p1760
aVrestaurant score
p1761
aVlives
p1762
aVneighborhood groups
p1763
aVplanning permits
p1764
aV.dwg
p1765
aVhistoric districts
p1766
aVwater rise
p1767
aVstcline
p1768
aVseismic hazards
p1769
aVzones
p1770
aVwebsite
p1771
aVsan francisco districts
p1772
aVmexico
p1773
aVbitcoin
p1774
aValameda county
p1775
aVcommunity benefit districts
p1776
aVbuilding shape
p1777
aVgrants
p1778
aVsound
p1779
aVoil
p1780
aVoutstanding vendor payments
p1781
aVunified school district
p1782
aVpublished
p1783
aVschool board
p1784
aVgas prices
p1785
aVstreet lanes
p1786
aVpm 2.5
p1787
aVfaultlines and earthquakes
p1788
aVcommissions
p1789
aVaddress point
p1790
aVclass_code
p1791
aVelevation data
p1792
aVwage
p1793
aVunaccepted streets
p1794
aVrecreation center
p1795
aV2008
p1796
aVtraffic violations
p1797
aVcatenary
p1798
aVafrican american
p1799
aV461
p1800
aVziteng li
p1801
aV460 schedule a
p1802
aVbusiness sales
p1803
aV501 the embarcadero; san francisco, ca 94105
p1804
aVbuilding energy benchmarking
p1805
aVpark score
p1806
aVparkmerced
p1807
aVx
p1808
aVmobile food facility permit
p1809
aVmuni map
p1810
aVsalesforce.com
p1811
aVmaher map
p1812
aVbids
p1813
aVstreet segment
p1814
aVstream
p1815
aVgreen roof
p1816
aVcoordinates
p1817
aVname
p1818
aVcheck-in
p1819
aVstreets of
p1820
aVhud
p1821
aVbay area land use
p1822
aVpolice precinct
p1823
aVland property
p1824
aVcentral soma
p1825
aVcivil sidewalks
p1826
aVpop
p1827
aVstreet use
p1828
aVodata
p1829
aVsecurity light
p1830
aVstreet structures
p1831
aVhousing cost
p1832
aVcustomer survey
p1833
aVcollege educated
p1834
aVloading
p1835
aVsf blocks
p1836
aVbudapest
p1837
aVproperty map
p1838
aVaverage rent
p1839
aVair bnb
p1840
aVclimate change
p1841
aVbeverages
p1842
aVcyclist
p1843
aVzipcar
p1844
aVbusiness areas
p1845
aV159 sadowa
p1846
aVcommunities of concern
p1847
aVdamage
p1848
aVcity attorney
p1849
aVmason
p1850
aVarrest records
p1851
aVsat results
p1852
aVregistration
p1853
aVbayarea bridges
p1854
aVdpt
p1855
aVdevelopers
p1856
aV555 california
p1857
aVcapital improvement
p1858
aVunclaimed property
p1859
aVrestaurant ratings
p1860
aVsan francisco basemap street centerlines
p1861
aVafter school
p1862
aVzoo
p1863
aVfecal
p1864
aVbuilding footprint data
p1865
aVlandlord
p1866
aVbird refuge
p1867
aVparking street
p1868
aVengineering
p1869
aVtaser
p1870
aV3-1-1
p1871
aVsfo customer survey
p1872
aVaddress locater
p1873
aVhatch beat
p1874
aVfast food
p1875
aVcampain finance
p1876
aVesri
p1877
aVcompany
p1878
aVbuilding archives
p1879
aVau pair
p1880
aVsigns
p1881
aV496
p1882
aV497
p1883
aVbuilding complains
p1884
aVbicycle routes
p1885
aVbusiness polygons
p1886
aVpdf
p1887
aVraces
p1888
aV"housing inventory"
p1889
aVsignals
p1890
aVcensus tracts and neighborhoods
p1891
aVcommunity benefit
p1892
aVharbor
p1893
aVportola
p1894
aVdog license
p1895
aVenergy benchmark
p1896
aVmedian household income
p1897
aVhomocide
p1898
aVvisual arts
p1899
aVplaygrounds
p1900
aVballot
p1901
aVlocal hire
p1902
aV.kml
p1903
aVapparel
p1904
aVelection results
p1905
aVcase data from san francisco 311
p1906
aVhuman rights
p1907
aV1990
p1908
aVlaw
p1909
aVbus stosp
p1910
aVhunters point
p1911
aVshapfile
p1912
aVwater infrastructure
p1913
aVfbn listings
p1914
aVbay cities
p1915
aVresidential parking permit
p1916
aVpark lands
p1917
aVtax roll
p1918
aVfiber optic
p1919
aVbaum
p1920
aVsfpd-incidents-2013
p1921
aVpubs
p1922
aVpolice beats
p1923
aVhiking
p1924
aVplan areas
p1925
aVclub
p1926
aVaccepted
p1927
aVcampaign finance 410
p1928
aVvoting record
p1929
aVaaron apperson
p1930
aVgeography
p1931
aVbuilding data
p1932
aVautocad
p1933
aVblue print
p1934
aVon-street
p1935
aVcity land
p1936
aVwms
p1937
aVhealth care facilities
p1938
aVhousing violations
p1939
aVassessment appeal
p1940
aVwater bodies in san francsisco
p1941
aVtemporary
p1942
aVproperty ownership
p1943
aVstore
p1944
aVbuildings with elevators
p1945
aVretirement
p1946
aValain gervais
p1947
aVboard of supervisors 2015
p1948
aVminutes spent walking or biking
p1949
aVparking meters dataset
p1950
aVfacebook
p1951
aV'*.shp
p1952
aVnew business
p1953
aVboba tea
p1954
aVbay area bridges
p1955
aVpurchasing
p1956
aVsocial network
p1957
aVcity building permits
p1958
aVkey
p1959
aVdiscrimination
p1960
aVsouth san francisco
p1961
aVplanning district
p1962
aVexisting commercial
p1963
aVpersonal property
p1964
aVpension
p1965
aVresidential permit parking
p1966
aVhistorical buildings
p1967
aVmobility
p1968
aVsan francisco base
p1969
aVtele
p1970
aVtenderloin housing clinic
p1971
aVsan_francisco property
p1972
aVgym
p1973
aVassessor block
p1974
aVstreets gis
p1975
aVeasement
p1976
aVlocations
p1977
aVsushi
p1978
aVaccidence
p1979
aV311 call
p1980
aVcandidate
p1981
aVwater intake
p1982
aVcustomer satisfaction
p1983
aVhousing unit
p1984
aVfood vendor
p1985
aVtreasury
p1986
aVclaim
p1987
aVmeasles outbreak
p1988
aVcommercial hazard
p1989
aVbusiness reg
p1990
aVpay
p1991
aVtitan
p1992
aVvehicle miles traveled
p1993
aVcity vehicles
p1994
aVkmz
p1995
aVviolence
p1996
aVairline
p1997
aVlands
p1998
aVmeter maid
p1999
aVdistrict boundaries
p2000
aVstreet line
p2001
aVcensus block group
p2002
aVcoffee shops
p2003
aVtraffic citations
p2004
aVexcavation permits
p2005
aVfatal
p2006
aVsewage
p2007
aVpipes
p2008
aVdui arrest
p2009
aVhotels and apartmans
p2010
aVcatchment
p2011
aVbuilding size
p2012
aVparcel history
p2013
aVaria retirement solutions
p2014
aVsan francisco giants
p2015
aVsfpd districts
p2016
aVaracely cafe
p2017
aVviolent crime rate
p2018
aVboundries
p2019
aVmobile food facility
p2020
aVcity districts
p2021
aVbaker
p2022
aVtransit corridors
p2023
aVstart up
p2024
aVhill grade
p2025
aVflorida
p2026
aVcommunity chanllenge grant
p2027
aVart gallery
p2028
aVcampaign finance 460
p2029
aVbusiness tract
p2030
aVbusinesses by number of employees
p2031
aVwestgate
p2032
aV"campaign finance - fppc"
p2033
aVvietnam
p2034
aVshort term
p2035
aVzoning boundary
p2036
aVanimal cruelty
p2037
aVsecured
p2038
aVfire safety
p2039
aVroad condition
p2040
aVbay water
p2041
aVburgelries
p2042
aVassembly district
p2043
aVbusiness data
p2044
aVmold
p2045
aVtin
p2046
aVbusiness registrations
p2047
aVfigure ground
p2048
aVper capita
p2049
aVbike gis
p2050
aVassessor office
p2051
aVsfha
p2052
aVpaper streets
p2053
aV2007 housing inventory
p2054
aVprincipal business code
p2055
aVaccela
p2056
aVclaim tax refund
p2057
aVculture centers
p2058
aVnative american
p2059
aVsupervisorial district
p2060
aVwarrants
p2061
aVcommercial loading
p2062
aVcity lots map service
p2063
aVgreen areas
p2064
aVbrand credibility
p2065
aVcensus track
p2066
aVjob code
p2067
aVbusiness owner
p2068
aVbook
p2069
aVresidential parking permits
p2070
aVbehested
p2071
aVk
p2072
aVpopulations
p2073
aVcityfeatures
p2074
aVcategory of crimes
p2075
aVbusiness permit
p2076
aVtree cover
p2077
aVstop signs
p2078
aVtax lot
p2079
aVsfmade
p2080
aVbusiness closing
p2081
aVcreative
p2082
aV460a
p2083
aVelementary schools
p2084
aVparcel area
p2085
aVhome sale
p2086
aV2208 mission street,
p2087
aVrent affordability
p2088
aVspecial use district
p2089
aVunclaimed
p2090
aVfind
p2091
aVhiring
p2092
aVfood permit
p2093
aVoff-street
p2094
aVpark shapefile
p2095
aValert sf
p2096
aVinternational student
p2097
aVowner of 2667-25th ave sf.,94116
p2098
aVgenerator
p2099
aVlandcover
p2100
aVopen buisiness
p2101
aVindustry
p2102
aVneighbor
p2103
aVcampaign summary
p2104
aVneigh
p2105
aVtaxicab
p2106
aVcrosswalks
p2107
aVdeath certificate
p2108
aVsfpd incidents - from 1 january 2003
p2109
aVmall
p2110
aVchina town
p2111
aVtraffic collisions
p2112
aVdpt bike
p2113
aVtraffic survey
p2114
aVmigration
p2115
aVsan francisco county freeways
p2116
aVcritical mass
p2117
aVstreets roads
p2118
aVmission motor company
p2119
aVferries
p2120
aVbaby
p2121
aVbody mass index
p2122
aVrdf
p2123
aVcustomer
p2124
aVspss
p2125
aVbuildings data
p2126
aVdevelopment pipeline 2015
p2127
aVresponse time
p2128
aVcensus 2000 blocks no water
p2129
aVrestaurant profit
p2130
aVwind turbine power
p2131
aVretail collection
p2132
aVlatino
p2133
aVlicense plate
p2134
aVneighbour
p2135
aVclipper
p2136
aVcity owned properties
p2137
aVbay area- general
p2138
aVfirestations
p2139
aVmonument
p2140
aVbike parking shapefile
p2141
aVshort-term
p2142
aVfood permits
p2143
aVbrt
p2144
aVadolescent pregnancy in south africa
p2145
aVlat
p2146
aVlisting prices
p2147
aVjapan
p2148
aVcameras
p2149
aVrailroads
p2150
aV410
p2151
aVtemporary tow zone
p2152
aVtelecommunications
p2153
aVshapefile census
p2154
aVenergy usage
p2155
aVstreet closure
p2156
aVway
p2157
aVshapefile street
p2158
aV1038 jackson
p2159
aVgun sales past 50 years
p2160
aVcat
p2161
aVnew construction
p2162
aVcity departments
p2163
aVforecast
p2164
aVtehran
p2165
aVtitle
p2166
aVfood facility
p2167
aVelevation model
p2168
aV6524/032
p2169
aVlondon fruit market
p2170
aVsic
p2171
aVshapefile boundaries
p2172
aVwattson
p2173
aVnodes
p2174
aVozone thai
p2175
aVopenbook
p2176
aVshuttle
p2177
aVpedestrian volume
p2178
aVrecycling bins
p2179
aVlobbyist contributions
p2180
aVstl
p2181
aVflights
p2182
aVorthoimagery
p2183
aVbreed
p2184
aVjeff
p2185
aVstartups
p2186
aVmanhattan
p2187
aVsharebetter
p2188
aVfedex
p2189
aVdemographic data
p2190
aVproducts
p2191
aVsaudi arabia
p2192
aVseniors
p2193
aV700
p2194
aVgas stations
p2195
aVstreet addresses
p2196
aVlat long
p2197
aVadmin
p2198
aVmovie locations
p2199
aVastma
p2200
aVcity owned buildings
p2201
aVperformance measures
p2202
aVdmv
p2203
aVdim sum
p2204
aVsanfrancisco employment
p2205
aVopen businesses
p2206
aVtraining
p2207
aVrestuarants
p2208
aVcity survey data
p2209
aVsurface mount
p2210
aVrealtime
p2211
aVccsf
p2212
aV.json
p2213
aVgolden gate electric
p2214
aVcensus 2000 tracts no water
p2215
aVoff street parking
p2216
aVon lok
p2217
aVcasey-fogli concrete contractors, inc.
p2218
aVmcd
p2219
aVmary jung dccc
p2220
aVcultural
p2221
aV94102
p2222
aVmarriage license
p2223
aVstreet nodes
p2224
aVbay trail vista point
p2225
aVworkforce development
p2226
aVmotionloft
p2227
aVwi-fi
p2228
aVlistings
p2229
aVassault
p2230
aVgeo
p2231
aVpayroll calendar
p2232
aVsan francisco police
p2233
aVcommercial building data
p2234
aVmoney
p2235
aVcounty property
p2236
aVsfmta bike
p2237
aVcultural centers
p2238
aVbicycle collision
p2239
aVsan francisco recreation
p2240
aVcss
p2241
aVresurfacing
p2242
aVblock data
p2243
aVautocad standards
p2244
aVcity fleet
p2245
aVus census bureau data
p2246
aV2919 folsom
p2247
aVsf 311
p2248
aVunion city
p2249
aVchristensen
p2250
aVrestaurant scores
p2251
aVhome prices
p2252
aVbusinesss
p2253
aVwine bars
p2254
aVgraphs
p2255
aVpolice incidents
p2256
aVpedestrian accidents
p2257
aVstreet name history
p2258
aV465
p2259
aVproperty line
p2260
aVsan francisco city
p2261
aVsf park
p2262
aVcompstat
p2263
aVbay area zipcodes
p2264
aVnaip
p2265
aVsan francisco historic waterfront
p2266
aVenterprise zones
p2267
aVpath
p2268
aVmedical examiner
p2269
aVblue bottle
p2270
aVzip code with longitude and latitude
p2271
aVpublic building
p2272
aVrajewen
p2273
aVhaight ashbury
p2274
aVfree
p2275
aVshore line
p2276
aVearth
p2277
aVcredit checks
p2278
aVbuilding energy use
p2279
aVmultiservices
p2280
aVchina basin
p2281
aVpublic restrooms
p2282
aVassessor roll
p2283
aVhousing density
p2284
aVprivate donations
p2285
aVnail salon
p2286
aVtraffic injuries
p2287
aVhighschool
p2288
aVsql
p2289
aVrecidivism
p2290
aVbusiness id
p2291
aVshootings
p2292
aViphone
p2293
aVneighborhood population
p2294
aVlongitude
p2295
aVgreen spaces
p2296
aVcivic art
p2297
aVurban gardens
p2298
aVblueprints
p2299
aVhealthy food
p2300
aVcrissy field
p2301
aVpathogens
p2302
aVuesf
p2303
aVclosure
p2304
aVzipped shapefile format
p2305
aVtermination
p2306
aVmodel
p2307
aVland owner
p2308
aVnightlife
p2309
aVmobile number
p2310
aVinvest
p2311
aVsmoking
p2312
aVguns
p2313
aVsecured roll
p2314
aVpd districts
p2315
aVdepartments
p2316
aVmotels
p2317
aVstorm drain
p2318
aVactivity
p2319
aVplants
p2320
aVrental listings
p2321
aVpublic works flood
p2322
aVsecured property assessment
p2323
aVcommunity services directory
p2324
aVcrime violent
p2325
aVbusiness consulting
p2326
aVsf_map_copyright_openstreetmap_contributors
p2327
aVpolling
p2328
aVcirme
p2329
aVcase data 311
p2330
aVbookstores
p2331
aVsfpd crime
p2332
aV2015 housing inventory
p2333
aVmarital status
p2334
aVbusiness name
p2335
aVa card
p2336
aVacademy
p2337
aVblockface
p2338
aV460 a
p2339
aVcensus tract 2000
p2340
aVwatson
p2341
aVmff
p2342
aVbike crime
p2343
aVfaxitnice 2130 22nd st san francisco ca 94107
p2344
aVchamp
p2345
aVtransfer
p2346
aVtraffic hour
p2347
aVcertified businesses
p2348
aVfire code
p2349
aVsea cliff data mapping
p2350
aVcapital improvements petition
p2351
aVparks recreation
p2352
aVjosefowitz
p2353
aVemployee salaries
p2354
aVfeedback
p2355
aVu permit parking
p2356
aVcbhs
p2357
aVbaseman of the 9 counties
p2358
aVproject
p2359
aVannual base
p2360
aVhouse value
p2361
aVside walks
p2362
aVmajor developer
p2363
aV2346 lot 20
p2364
aVbycicle
p2365
aVtransportation routes
p2366
aVtourist spots
p2367
aVbuyout
p2368
aVairport data
p2369
aVconsultants
p2370
aVtransit route
p2371
aVaverage home price
p2372
aV460s
p2373
aVpest
p2374
aVsan francisco city grid
p2375
aVregistered business map
p2376
aVbay city
p2377
aVaziza
p2378
aVretrofit
p2379
aVcleanliness
p2380
aVwashington street
p2381
aVwind farm
p2382
aV94112
p2383
aV94116
p2384
aVbondaries
p2385
aV\u005c
p2386
aVaerial photos
p2387
aVformula
p2388
aVpm2.5
p2389
aVaupair
p2390
aVdefication
p2391
aVpotrero hill health center
p2392
aVtwinky clean
p2393
aVsupermarket
p2394
aVstate senate
p2395
aVanimcal species
p2396
aVbilding footprints
p2397
aVhills
p2398
aVsunnyvale
p2399
aVall parcel
p2400
aVone maritime plaza
p2401
aVfoodtrucks
p2402
aVstreet lines
p2403
aVbike stations
p2404
aVtransit center district plan
p2405
aVparking garage
p2406
aVcoyote
p2407
aVbackward areas
p2408
aVcountour
p2409
aVtom lewis
p2410
aVtransbay
p2411
aVcharging station
p2412
aVcompuer stores
p2413
aVap 201 california owner llc
p2414
aVpolice response time
p2415
aVamerican legal
p2416
aVsea
p2417
aVrestaurent
p2418
aVaccidents gis
p2419
aVrepaving
p2420
aVnovember 2014
p2421
aVcampaign consultants
p2422
aVcontour lines
p2423
aVbucharest
p2424
aVdata academy
p2425
aVground control points
p2426
aVcip
p2427
aVstart-up
p2428
aVbest practices
p2429
aVapns for port of sf
p2430
aVper capita income
p2431
aVlogistics
p2432
aVrichmond
p2433
aVhigh
p2434
aVwaitlist
p2435
aVcommercial waste
p2436
aVstreet address
p2437
aV2011
p2438
aVapril 2015 richmond district
p2439
aVtaxi complaint
p2440
aV\u005crestaurant
p2441
aVhetch
p2442
aVcasaluna
p2443
aVone way
p2444
aVmap of crime incidents
p2445
aVinfractions
p2446
aVdba
p2447
aVcommodity contracts
p2448
aVsan francisco county boundary
p2449
aVcl
p2450
aVcomplete details about crime
p2451
aVcrime maps
p2452
aVair quality monitoring
p2453
aVreliability
p2454
aVhousing development
p2455
aValcohol related businesses
p2456
aVbus accident locations
p2457
aVanimal species
p2458
aVcommercial facilities
p2459
aVarcheology
p2460
aVbike trails
p2461
aV130058911
p2462
aVsunshine
p2463
aVcounty boundaries
p2464
aVvacant public space
p2465
aVrec
p2466
aVoffice
p2467
aVburning man
p2468
aVfestival
p2469
aVcelerity
p2470
aVincorporated
p2471
aVoutdoor scenes
p2472
aVrpd parks
p2473
aVsud
p2474
aVbicycle death
p2475
aVnoe valley
p2476
aVdata set
p2477
aVcapita
p2478
aVbus lane
p2479
aVcontact
p2480
aVparcels shapefile
p2481
aVmarketing
p2482
aVcurb line
p2483
aVlegislation
p2484
aVvacant lot
p2485
aVcity zip
p2486
aVhorses
p2487
aVtax collection
p2488
aVshotspotter
p2489
aV2012 housing inventory
p2490
aVmoving violation
p2491
aVchaix company
p2492
aVtoxic waste sites
p2493
aVbuilding code violation
p2494
aVbirds
p2495
aVwalking and cycling
p2496
aVpurchase order
p2497
aVcity streets
p2498
aVchild poverty
p2499
aVparkside mailboxes business license
p2500
aVsan francisoco
p2501
aVsouth of market
p2502
aVcommuter shuttle
p2503
aVclinics
p2504
aVsunset
p2505
aVtank removel
p2506
aVcity college board 460
p2507
aVbuilding date
p2508
aVexternal
p2509
aVearning
p2510
aVcentral
p2511
aVsupreme court
p2512
aVlog
p2513
aVbaker places inc.
p2514
aV3938 geary blvd. san francisco, ca 94118
p2515
aVvalues
p2516
aVreligious
p2517
aVbuckingham colonies
p2518
aVproperty owners
p2519
aVproperty assesment
p2520
aVcensus 2000 data
p2521
aVburns
p2522
aVplanimetric
p2523
aVfarebox
p2524
aVjim jones 1975
p2525
aVbelow market rate development sites
p2526
aVdigital elevation
p2527
aVfire hydrant
p2528
aVsubstance use
p2529
aVqn4d-bra2
p2530
aVandrew rex
p2531
aVcar shapefile
p2532
aVsmart
p2533
aVwhite zone
p2534
aVla pointe
p2535
aVcontacts
p2536
aVgame
p2537
aVweiner
p2538
aVlakes
p2539
aVarborist
p2540
aVfaith
p2541
aVstatistics
p2542
aVtmnf-yvry
p2543
aVvehicle accidents
p2544
aVbuilding sq ft
p2545
aVcommunity college
p2546
aVgb
p2547
aVcellular
p2548
aVrestaurant health
p2549
aVaccessor
p2550
aVstreet width
p2551
aVcensus 200
p2552
aVclass codes
p2553
aVsfblocks
p2554
aVbuilding addresses
p2555
aVblock lots
p2556
aVcity shapefile
p2557
aVbicycle data set
p2558
aVcity street map without buildings
p2559
aVbart and muni lines
p2560
aVbuilding stories
p2561
aVfirestation
p2562
aVbrewery
p2563
aVlimits
p2564
aVair space contours
p2565
aVcampaign contribution
p2566
aVresident
p2567
aVsurface
p2568
aVprivate school
p2569
aVdepartment of public works
p2570
aVhuman waste reports
p2571
aVplan area
p2572
aVtransaction
p2573
aVberkeley ca
p2574
aVaerial images
p2575
aVautomobile density
p2576
aVbeats
p2577
aVnumber of lanes
p2578
aVfoia
p2579
aVtax parcel
p2580
aVhouse income
p2581
aV101
p2582
aV5060 west 14th street greeley co 80634
p2583
aVbicycle racks
p2584
aV02139
p2585
aVresurant scores
p2586
aVsanborn
p2587
aVbasemap stclines
p2588
aVbusiness address
p2589
aVcall metrics
p2590
aVtourism supply and demand
p2591
aVsfpd crime incident
p2592
aVsan francisco contour
p2593
aVannual housing inventory
p2594
aVit
p2595
aVconstruction permits
p2596
aVbuilding height data
p2597
aVsmall businesses
p2598
aVoakland land use
p2599
aVbicilce
p2600
aVlocator
p2601
aVsoft story
p2602
aVbishop swing
p2603
aV94107
p2604
aVsafe
p2605
aVpopulation denstiy
p2606
aVsmartphone
p2607
aVchina born
p2608
aVariel
p2609
aVtandoori chicken usa
p2610
aVflu
p2611
aVneighborhood group
p2612
aVcensus shapefile shoreline shapefile
p2613
aVlight pole
p2614
aVchinese hospital
p2615
aVland area
p2616
aV"kate spasde"
p2617
aVconstructionlist
p2618
aVnext ten
p2619
aV94122
p2620
aVmedian
p2621
aVtraffic_accidents
p2622
aVsodini's
p2623
aVpuma
p2624
aVzoning parcel
p2625
aVparking sign
p2626
aVland use zone
p2627
aVsection 8
p2628
aVgangs
p2629
aVrental listing
p2630
aVdepartment
p2631
aVcherryroad technologies
p2632
aVrobbery
p2633
aVcensus tracts 2000 no water
p2634
aVtraffic data
p2635
aVcontinuum of care
p2636
aVamendments
p2637
aVcleanup
p2638
aV311 calls on litter
p2639
aVenterprise addressing system
p2640
aV501c3
p2641
aVcentral shops
p2642
aVpublic libraries
p2643
aVspringfield crime
p2644
aVpurchase orders
p2645
aVcalifornia counties
p2646
aVthem ky
p2647
aVarteries
p2648
aVhuman services
p2649
aVrec park capital improvements
p2650
aVbusiness renewal
p2651
aVcity vehicle
p2652
aVcesus data
p2653
aVpolygons
p2654
aVconstruction and housing
p2655
aVconduit
p2656
aV3000 washington street 4000 washington street, san francisco ca94118
p2657
aVairbed and breakfast
p2658
aVbig data
p2659
aVblock parties
p2660
aVdaly city
p2661
aVkate spade
p2662
aVcannabis collective
p2663
aVcips
p2664
aVsfgov
p2665
aVcity and streets
p2666
aVcentury 21
p2667
aVelected officials
p2668
aVcarman
p2669
aVtomarah l. nikeh death certificate
p2670
aV31
p2671
aVho's construction
p2672
aVlamp
p2673
aVagustin anda
p2674
aVbusinesse
p2675
aVdavid jordan
p2676
aVsf-champ
p2677
aVaqp 3656/004
p2678
aVcity workers
p2679
aVadu
p2680
aVsf_map_copyright_openstreetmap_contributors.rds
p2681
aVliteracy
p2682
aVparks and rec
p2683
aVnumber of stories
p2684
aVgas station
p2685
aVreal estate properties
p2686
aVbay area county
p2687
aVannual salary ordinance
p2688
aVplumbing
p2689
aVcommission president
p2690
aVapn 3656/004
p2691
aV2012 campaign finance
p2692
aVacupuncture professor inc
p2693
aVsfgis
p2694
aVfive year plan
p2695
aVincident arson
p2696
aVsoda
p2697
aVbicyle
p2698
aVenterprise
p2699
aVseawall
p2700
aVbail
p2701
aVstart ups
p2702
aVcertificate of death
p2703
aVcapacity
p2704
aVaquarium
p2705
aVsanfransisco.gdb
p2706
aVteachers
p2707
aVcar park
p2708
aVbig o tires
p2709
aVcommuter bus
p2710
aVshapefile format
p2711
aVpipeline q4 2014
p2712
aVcampaign fund
p2713
aVhomeless people
p2714
aVtrip
p2715
aVincident report
p2716
aVpicture
p2717
aVgis bike network
p2718
aV460 summary
p2719
aVweather data
p2720
aVair bed and breakfast
p2721
aVbuisness professional statistics
p2722
aVspecial education
p2723
aVactive block lots
p2724
aVcensus shapgile
p2725
aVplazas
p2726
aVcalfresh
p2727
aVaids emergency coalition
p2728
aVcare not cash monthly report
p2729
aVinner sunset
p2730
aVworship
p2731
aVbusiness licences
p2732
aVassessment 2014
p2733
aVchristopher charley
p2734
aVshapefile transit
p2735
aVoklahoma
p2736
aVhousehold size
p2737
aVassessors data
p2738
aVclimate and health profile
p2739
aVwater heating
p2740
aVavaliable parking in san francisco
p2741
aVcarsharing
p2742
aVreview
p2743
aVgas price
p2744
aVheight and bulk
p2745
aVtaraval crime statistics
p2746
aVcommercial project
p2747
aVmuni bus
p2748
aVtif
p2749
aVsenoirity list city wide carpenters
p2750
aVfppc form
p2751
aVbicycle ownership
p2752
aVtraffic signal
p2753
aVhazards
p2754
aVfinancial
p2755
aVwaste water
p2756
aVland use map
p2757
aVcandidate controlled committees
p2758
aVproperty sale
p2759
aVrunoff
p2760
aVcity attonrey
p2761
aVreal estate prices
p2762
aVcigarette litter
p2763
aVsoccer
p2764
aVcensus block groups
p2765
aVcommerce and industry
p2766
aVinequality
p2767
aV1008112
p2768
aVwaiting times
p2769
aVrestaurant license
p2770
aVvoter rates
p2771
aVassessor's report
p2772
aVtreasurer
p2773
aVstale
p2774
aVcad standards
p2775
aVcurblines
p2776
aVcertificate
p2777
aVtax rate
p2778
aVairbed
p2779
aVfppc 460
p2780
aVpermit consultants
p2781
aVmiami
p2782
aVforeign born
p2783
aVlandmarcrimek
p2784
aVbusiness registration certification numbers
p2785
aVneigborhood
p2786
aVdrinking
p2787
aVcold drink
p2788
aVblack and white design builder
p2789
aVtaraval
p2790
aVquake
p2791
aVheart disease
p2792
aVrat
p2793
aVwomen economic
p2794
aVtrolley
p2795
aVaccounts payable
p2796
aVdata chicago
p2797
aVnorth carolina
p2798
aVart and cultural
p2799
aVfictitious business names
p2800
aVboring
p2801
aVq4
p2802
aVmedium income
p2803
aVfoot print
p2804
aVrpp
p2805
aVrpd
p2806
aVbeethoven
p2807
aVaerial imagery
p2808
aVelection candidates
p2809
aVfishing
p2810
aVtax district
p2811
aVclassification big data
p2812
aVsolid waste
p2813
aVsf lands
p2814
aV
p2815
aVregistered-business-locations-san-francisco
p2816
aVhistorical weather data
p2817
aVcall for service
p2818
aVtxt
p2819
aV94158
p2820
aVpopulation\u005c
p2821
aVshort term rentals
p2822
aVparcel value
p2823
aV2312
p2824
aVtreasure island music festival proposal transportation plan
p2825
aVairbnb host
p2826
aVassessments
p2827
aVresident parking
p2828
aV2130 22nd st san francisco ca 94107
p2829
aVfair
p2830
aVconflagration
p2831
aVdebt
p2832
aVsan francisco gis
p2833
aVpublic urination
p2834
aVemployee salary
p2835
aVsnap
p2836
aVeconomics
p2837
aVdistrict attorney
p2838
aVbicycle counts
p2839
aVsan francisco events calendar
p2840
aVright
p2841
aVcommunity programs
p2842
aVdata key
p2843
aVsfrpd
p2844
aVleed
p2845
aVwestern addition
p2846
aVcurb lines
p2847
aVbalboa park
p2848
aV043634
p2849
aVcrowdsourcing
p2850
aVwater pipes
p2851
aVrutherford
p2852
aVsfpd plots
p2853
aVbristol farms
p2854
aVsectors
p2855
aVryan white
p2856
aV94111
p2857
aV94115
p2858
aVtraffic noise data north beach
p2859
aVr
p2860
aVsexually
p2861
aVstudio candelabre
p2862
aVhousing element
p2863
aVnight noise
p2864
aVdog owners
p2865
aVhealth insurance coverage
p2866
aVoutlet
p2867
aVvision
p2868
aVgeography id
p2869
aVresidence
p2870
aV3130 webster st san francisco, ca 94123
p2871
aVneighborhood commercial districts
p2872
aVrest
p2873
aVtables and chairs
p2874
aVmta crime
p2875
aVtsunami
p2876
aV821 fillmore
p2877
aVtransportation gis
p2878
aVle soleil
p2879
aVpropertyassesementroll
p2880
aVcode enforcement
p2881
aVsan francisco housing authority
p2882
aVjonah yee
p2883
aVinvestment
p2884
aVdistrict population
p2885
aVattendance
p2886
aVcarbon dioxide
p2887
aVmarnell
p2888
aVfinancial reporting
p2889
aVcity shape file
p2890
aVhotel tax
p2891
aVsewer repairs bryant street
p2892
aVresidential permit
p2893
aVcorrido
p2894
aVparking rules
p2895
aVnoaa
p2896
aVemergency medical
p2897
aVsan francisco median income
p2898
aVpedestrian high injury
p2899
aV9th avenue
p2900
aVsfo customer survey data set
p2901
aVmls
p2902
aValert
p2903
aVurban forest
p2904
aVcommunications
p2905
aVsan francisco zip
p2906
aVelementary school
p2907
aVdph
p2908
aVapartments
p2909
aVcorporate officials
p2910
aVrenovation
p2911
aVzika
p2912
aVapp showcase
p2913
aVbroadway street
p2914
aVemployees by classification
p2915
aVprimary roads
p2916
aVred light
p2917
aVright-of-way
p2918
aVestablishment
p2919
aVnpv
p2920
aVoutlines
p2921
aV"year built"
p2922
aVdrains
p2923
aVkorean
p2924
aVshotwell st
p2925
aVbay area zip code
p2926
aVcrime san francisco
p2927
aVamtrak
p2928
aVrestrictions
p2929
aVwater trade
p2930
aVneithborhoods
p2931
aVbusinesses_registered_in_san_francisco_-_active
p2932
aVcampaign finance 460 schedule a
p2933
aVseismic hazard zones
p2934
aV"continental appliance"
p2935
aV17 russell
p2936
aVtransportation network companies
p2937
aV460 g
p2938
aVwater networks
p2939
aVkawashimas kitchen
p2940
aVstreet cleaning schedule
p2941
aVpopulation 1997
p2942
aV0000484
p2943
aVstreets shp
p2944
aVproposition e
p2945
aVsfpd complaints
p2946
aVbike crash
p2947
aVmy office support
p2948
aV1640/042
p2949
aVnaftaly shmargal
p2950
aVen pointe technologies
p2951
aVpddistrict
p2952
aVtraffic control signal
p2953
aVcases by neighborhood
p2954
aVneighborhood notification areas
p2955
aVsfsu
p2956
aVuncashed warrants
p2957
aVbuilding energy
p2958
aVtransportation data
p2959
aVzip code map
p2960
aVb6tj-gt35
p2961
aVonline dating
p2962
aVgolf courses
p2963
aVharrison st. san francisco, ca
p2964
aVgis basemap
p2965
aVcushman
p2966
aVfood manufacturers
p2967
aVramps
p2968
aVblock party
p2969
aVjaros
p2970
aVaffluence
p2971
aVvacant land
p2972
aVhelicopter
p2973
aVdatasf
p2974
aVappeal
p2975
aVsky environmental cleaning llc
p2976
aVlive
p2977
aVbeat
p2978
aVproduct
p2979
aVwater features
p2980
aVbike shop
p2981
aVbuyout agreements
p2982
aVorthoimagry
p2983
aVcard
p2984
aVcrime incidents previous three months
p2985
aVsize
p2986
aVnutrition
p2987
aVpittsburgh
p2988
aVstreet gis
p2989
aVveteran
p2990
aVembarcadero
p2991
aVgraffitti
p2992
aVbusiness code
p2993
aVport jurdistiction
p2994
aVtraffic flow
p2995
aVdpr construction
p2996
aVmuni rail
p2997
aV50 1
p2998
aVmission bay census
p2999
aVaverage salary
p3000
aVpublic funds
p3001
aVein
p3002
aVrentallistings
p3003
aVloading zone
p3004
aVcrossing guard
p3005
aVbenefit
p3006
aVbusiness licence
p3007
aVopen sapce
p3008
aVsnapchat
p3009
aVspecial events
p3010
aVmobile vendor
p3011
aVappliance
p3012
aVfood banks
p3013
aVhome value
p3014
aVpark and open
p3015
aVhousehold median income
p3016
aVworking class
p3017
aVsan francisco city feature
p3018
aVpaving scores
p3019
aVfire 2009
p3020
aVthe standard
p3021
aVcentral market
p3022
aVsuper bowl
p3023
aVclosed businesses
p3024
aVautomobile
p3025
aVsan andreas
p3026
aVnorth dakota
p3027
aVcrime data sfpd
p3028
aVkao
p3029
aVpipeline report
p3030
aVcreeks
p3031
aVduncan
p3032
aVsan francisco population
p3033
aVproperty characteristics
p3034
aVparade
p3035
aVgreenhouse gas
p3036
aVmeter prices
p3037
aVpipeline 2016
p3038
aVfrom 460
p3039
aVcomputer
p3040
aVgdp by industry
p3041
aVsea shore line
p3042
aVforest
p3043
aVtraffic control
p3044
aVcommuter shuttles
p3045
aVhow do san francisco use it crime data
p3046
aVvandalism
p3047
aVstructure
p3048
aVpopo
p3049
aVopen street map
p3050
aVclick
p3051
aVstreet permits
p3052
aVproject management
p3053
aVsfpd incidents 2013
p3054
aVbusiness owners
p3055
aVowner move in
p3056
aVphotograph
p3057
aVnursing homes
p3058
aVcoreos
p3059
aVpaving pci scores
p3060
aVtruck route
p3061
aVwork hour
p3062
aVspecial use
p3063
aVbed bug
p3064
aVmiles of streets
p3065
aVunderground
p3066
aVphilz
p3067
aVincome shapefile
p3068
aVyerba buena
p3069
aVsonic
p3070
aVnightclub
p3071
aVprocessed food registration
p3072
aVcourts
p3073
aVexcessive rent burden
p3074
aVurban farms
p3075
aVreal property
p3076
aVrestaurent health
p3077
aVurban tree canopy
p3078
aVsan francisco zoning
p3079
aVned
p3080
aVsf parks
p3081
aVfour days
p3082
aVwild life
p3083
aVburglaries
p3084
aVroof
p3085
aVtransportaion
p3086
aVlabor standards
p3087
aVpcap traces
p3088
aVunemployed
p3089
aVarrested
p3090
aVamor santiago
p3091
aVpublic toilets
p3092
aVcity lands
p3093
aVproperty roll
p3094
aVunemploy
p3095
aVbay ferry
p3096
aVwater service area
p3097
aVcommission
p3098
aVheat vulnerability index for our climate and health program
p3099
aVseattle
p3100
aVhuman
p3101
aVcommuters
p3102
aVecology
p3103
aVbonaguro
p3104
aVdataset of dataset
p3105
aVasset
p3106
aVlanduse map
p3107
aVdiep
p3108
aVland use gis
p3109
aV887 45th ave.
p3110
aVweb eoc
p3111
aVwaterbodies
p3112
aVlist of businesses
p3113
aVparcs
p3114
aVmanholes
p3115
aVroutes to san francisco state university
p3116
aVecbo hotels
p3117
aVzhi quan wu
p3118
aVshelter oakland
p3119
aVemployees terminated
p3120
aVac transit
p3121
aV94121
p3122
aVtenderloin housing group
p3123
aVcalendar
p3124
aVbart line
p3125
aVcensus 2010 blocks
p3126
aV960 howard
p3127
aV460 schedule
p3128
aVcity contracts
p3129
aVincarceration
p3130
aVdbi permit 2015
p3131
aVyouth in district 10
p3132
aVelectricity supply
p3133
aVhistoric evaluation
p3134
aVimages
p3135
aVautism
p3136
aVcensus 2010 census block for san francisco
p3137
aVfill
p3138
aVhayward crime
p3139
aVbrands
p3140
aVzoning shapefile
p3141
aVbuilding typology
p3142
aVquarterly report
p3143
aVmoldova
p3144
aVcity council districts
p3145
aVlawyer
p3146
aVbeacon
p3147
aV"120 lake"
p3148
aVsan francisco airport
p3149
aVideo
p3150
aVbenefits
p3151
aVtow zones
p3152
aVusa crime statistics
p3153
aVfood vendors
p3154
aVhealthy san francisco
p3155
aVrental data
p3156
aVannexation
p3157
aVdpt network
p3158
aVanimal care and control
p3159
aVgeneral signal
p3160
aVelect supervisor districts
p3161
aVcivil service salary
p3162
aVform 497
p3163
aVsf-champ model documents and data
p3164
aVhigh way
p3165
aVfredericksburg, virginia
p3166
aVfood stores
p3167
aVcafr
p3168
aVpotable water
p3169
aVpedestrian victims
p3170
aVexercise
p3171
aVhill slope
p3172
aVcensus population
p3173
aVhouse prices
p3174
aVdistrict 7
p3175
aVhealth clinic
p3176
aVstreets of san francisco (zipped shapefile format)
p3177
aVtransient tax
p3178
aVbishop swing community house
p3179
aVpediatric medical resource group
p3180
aVliquifaction
p3181
aVcommercial real estate
p3182
aVtax exclusion
p3183
aVleo burnett
p3184
aVaverage income
p3185
aVtraffic volumes
p3186
aVroad polygons
p3187
aVbernal heights topographic map
p3188
aVhow many apartment biuldings in city
p3189
aVgeneral
p3190
aVsweeper scheduled
p3191
aVmarket street hub
p3192
aVrequests
p3193
aVroyalty
p3194
aVtraffic control signal locations
p3195
aVworld map
p3196
aVarticel 10
p3197
aVaddress book
p3198
aVsfpuc capital improvement plan
p3199
aVplanning neighborhood income
p3200
aVlondon
p3201
aVcrossfit
p3202
aVsf bridges
p3203
aVvacationland
p3204
aVfilter
p3205
aVinspectors
p3206
aVoakland crime data
p3207
aVsuper sonic
p3208
aVtot
p3209
aVcity hall shapefile
p3210
aVarterials
p3211
aVtourists
p3212
aVexpa
p3213
aVrental prices
p3214
aVopen book
p3215
aVstreet lamp
p3216
aVnonprofits
p3217
aVocc
p3218
aVrestaurant health scores
p3219
aVasbestos
p3220
aVopen space around the bay
p3221
aVjob open
p3222
aVheneghan
p3223
aVcycle
p3224
aVassessor block map
p3225
aVart and cultural facilities
p3226
aVgift
p3227
aVkevin klung
p3228
aVover weight students in new york for year 2010 to 2013
p3229
aVvehicle density
p3230
aVfoorprint
p3231
aVcollege education
p3232
aVsfmta shapefile
p3233
aVutility excavation permits
p3234
aV2000 census tract
p3235
aVcrime stat
p3236
aVms4
p3237
aVfree parking
p3238
aVdispensary liocations
p3239
aVcypress security city contracts
p3240
aVsingle room occupancy hotel
p3241
aVstreets of san fran
p3242
aVshapefile, addresses
p3243
aVassessor parcel
p3244
aVmotion
p3245
aVcafes
p3246
aVhuman feces
p3247
aVconvention
p3248
aVcensus 2010: census blocks for san francisco
p3249
aVgis parcel data
p3250
aVhiv grant
p3251
aVside walk
p3252
aVsan francisco schools
p3253
aVone maritime plaza/enviroment
p3254
aVnursing services
p3255
aVparcel number
p3256
aVtiger
p3257
aVtrain delays
p3258
aVslider bar
p3259
aVethiopia
p3260
aVload capacity
p3261
aVdonations
p3262
aVbicycle crash
p3263
aVparcels_with_history
p3264
aVcitizen complaints
p3265
aVecommerce
p3266
aVassessor property roll
p3267
aVfarms
p3268
aVroads center lines
p3269
aVoff-sale
p3270
aVtechnology budget
p3271
aVbuildings of san francisco
p3272
aVneighborhood boundary
p3273
aVexisting home sales
p3274
aVfees
p3275
aVfire permits
p3276
aVendangered species
p3277
aVhistorical zoning
p3278
aVcrime locations
p3279
aVsan francisco wind
p3280
aVwater four days
p3281
aVsan francisco neighborhood
p3282
aVtraffic incidents
p3283
aVneighborhood planning
p3284
aVsan francisco crime rates
p3285
aVzcta
p3286
aVberkley
p3287
aVpublic buildings
p3288
aVcrash restraint
p3289
aVplanning department
p3290
aVdevelopers 2015
p3291
aVvallejo
p3292
aVfinelite
p3293
aVvehicle registration
p3294
aVblock number
p3295
aVnairobi
p3296
aVlow income population
p3297
aV0487348
p3298
aVannual income
p3299
aVresilience
p3300
aVpd district
p3301
aVparcel 2011
p3302
aVhealthcare facilities
p3303
aVred light camera
p3304
aVfoster care and incarceration
p3305
aVbart routes
p3306
aVlobbyist activity - activity expenses
p3307
aVplanned commercial projects
p3308
aVpublic land
p3309
aVfine
p3310
aVparking shapefile
p3311
aVapp
p3312
aVusa
p3313
aVcool roofs
p3314
aVconstruciton
p3315
aVsanborn maps
p3316
aVparking space
p3317
aVrail transportation
p3318
aVdictionary
p3319
aVrec and park
p3320
aVhearings
p3321
aVcustomer survey sfo
p3322
aVsfdp
p3323
aVmonuments
p3324
aVshape files for san francisco open space
p3325
aVresturaunt
p3326
aVoriginal joe's
p3327
aVgeographical
p3328
aVsf topo
p3329
aVlead
p3330
aVcity properties
p3331
aVannual salary
p3332
aVaccrued expenses
p3333
aVdispensaries
p3334
aVrecord
p3335
aVlobbyist payments
p3336
aVcity council candidate
p3337
aVadvanced genetic systems
p3338
aVcontra costa
p3339
aVsidewalk permit
p3340
aVhuman traffic
p3341
aVcigaretter
p3342
aVmurals
p3343
aVvehicles per household
p3344
aVbulding
p3345
aVjoy bonaguro
p3346
aVhigh schools
p3347
aVcommunity resiliency indicator system
p3348
aVwalmart
p3349
aVbicyclist
p3350
aVsan fransisco crime
p3351
aVsoil types
p3352
aVhouse sale
p3353
aVcoffee market
p3354
aVtrip generation
p3355
aVzika fever
p3356
aV27 isis
p3357
aVparcel shapefile
p3358
aVcity boundary shapefile
p3359
aVcar owner
p3360
aVstrrets
p3361
aVcommuter traffic
p3362
aVcounty line
p3363
aVcrime report
p3364
aVscore
p3365
aVcapital projects
p3366
aVbicycle share
p3367
aVgovernment institutions
p3368
aVoutstanding checks
p3369
aVcitizen survey
p3370
aVpolice reports
p3371
aVservice request
p3372
aVdengue
p3373
aVsanfranciscopopulation
p3374
aVunit
p3375
aVvisitors
p3376
aVnoise pollution
p3377
aVbusiness sign permits
p3378
aVcomputer science
p3379
aVparkingmeters
p3380
aVaverage one-bedroom prices san francisco
p3381
aVbanners
p3382
aVurinary
p3383
aVsan francisco parks
p3384
aVbuilding plas
p3385
aVped
p3386
aVrideshare
p3387
aVpark and open space maps images
p3388
aVair rights
p3389
aVdigital elevation map
p3390
aVmetered parking spaces
p3391
aVhydrography
p3392
aVshapefil
p3393
aVttx
p3394
aVcensus 2010 census blocks
p3395
aV94118
p3396
aVrecords
p3397
aVfurniture
p3398
aVdisasters
p3399
aVcalming
p3400
aVaudax
p3401
aVmolly saeger
p3402
aVquality
p3403
aVparking garages
p3404
aVpublic transportation stop
p3405
aVback up generator
p3406
aVsan
p3407
aV911 calls
p3408
aVsan francisco pipeline
p3409
aVxml
p3410
aVpriority development area
p3411
aVcharitable
p3412
aVcredit card
p3413
aVemergency calls
p3414
aVbicycle repair
p3415
aVfood scarcity
p3416
aVfire houses
p3417
aVbirths
p3418
aVpaul mathews
p3419
aVvassallo
p3420
aVparking meter locations
p3421
aVnew york city, ny
p3422
aVcampaign spending
p3423
aVracial
p3424
aV2000 census
p3425
aVclaremont creative
p3426
aVtotal client payments received by consultants
p3427
aVmeter numbers
p3428
aVyoga
p3429
aVbuilt up area
p3430
aVeas address
p3431
aVchisel design
p3432
aVsfmta muni
p3433
aVboard of supervisors campaign finance 2012
p3434
aVnoise map
p3435
aVtrc7.2.448
p3436
aVtrafic
p3437
aVdeeds
p3438
aVpeskin
p3439
aVlalanne
p3440
aVmuni forward
p3441
aVcommunity events
p3442
aVschedule 460
p3443
aV311 service request
p3444
aVtaxis
p3445
aVwater bodies san francisco\u005c
p3446
aVplay
p3447
aVsfmta routes
p3448
aVheat-vulnerability
p3449
aVbay area coast line
p3450
aVrestaurants score
p3451
aVwater utilities
p3452
aVheat map
p3453
aVcomposting
p3454
aVloan
p3455
aVpublishing
p3456
aVstreet tree map
p3457
aVcity payroll
p3458
aVclaim tax refund form
p3459
aVfailure
p3460
aVsan francisco tourism
p3461
aVpalo alto
p3462
aVimmigrant
p3463
aVtoxic sites
p3464
aVbuilding pattern
p3465
aVeas_addresses_with_units
p3466
aVbattalion
p3467
aVchild support
p3468
aVassessment role
p3469
aVtravel decision survey
p3470
aVcarol
p3471
aVfarmers
p3472
aVjob growth
p3473
aVmobile phones
p3474
aVzika virus
p3475
aVumb list
p3476
aVtransient
p3477
aVoracle
p3478
aVdefacation
p3479
aVpetitions
p3480
aVjulie christensen
p3481
aVhospital locations
p3482
aVindex
p3483
aVb
p3484
aVbay trail shape file
p3485
aVsquare feet
p3486
aVresidents
p3487
aVfinancial disclosure
p3488
aVtopological
p3489
aVexpense
p3490
aVblock maps
p3491
aVcharity
p3492
aV857 39th ave.
p3493
aVresidential density
p3494
aVoperation contact
p3495
aV311 metrics
p3496
aVform 465
p3497
aVevacuation
p3498
aVcandlestick point san francisco
p3499
aVfault line
p3500
aVtransit shape
p3501
aVfort mason
p3502
aVfood trucks profit
p3503
aVhistoric resources
p3504
aVdistrict boundary
p3505
aVpolice officers
p3506
aVsecurity camera
p3507
aVcarollo
p3508
aVcr
p3509
aVurban area
p3510
aVsan francisco landuse
p3511
aVcommunity care
p3512
aVcar mpg
p3513
aVmanaged business account for roldan enriquez
p3514
aVouter sunset
p3515
aVsf block
p3516
aVneighborhood district
p3517
aVfrequency
p3518
aVdonors 2015
p3519
aVwater benchmarking
p3520
aVban lookup
p3521
aVliquification
p3522
aVcounty map
p3523
aVbasketball courts
p3524
aVparcle
p3525
aVhumidity
p3526
aVblock and lot
p3527
aVtoll
p3528
aVmultifamily
p3529
aVsmoke
p3530
aVstclines streets
p3531
aVhouse age
p3532
aVtech companies
p3533
aVsmall business license cost
p3534
aVconsent
p3535
aVanimal hospital
p3536
aVwsip
p3537
aVjohn
p3538
aVkezar stadium
p3539
aVunsecured
p3540
aVtourist attraction
p3541
aVbay area schools
p3542
aVcensus2000_blk_nowater and sfshore
p3543
aVfeatures
p3544
aVsupervisor shapefile
p3545
aVbudget and spending
p3546
aVmacquarie
p3547
aVhuman poop
p3548
aVfilming
p3549
aVchinese restaurant
p3550
aVschedule d
p3551
aVplanning applications filed and issued
p3552
aVpublic park
p3553
aVcrimes data
p3554
aVstatistic
p3555
aVcal train
p3556
aVbig data spending
p3557
aVstreets of san fransisco
p3558
aVbusiness number
p3559
aVbook ratings
p3560
aVnumber of tenants
p3561
aVfixed speed cameras
p3562
aVcar insurance
p3563
aVorganizations
p3564
aVchiu
p3565
aVpier 70
p3566
aVghg
p3567
aVsf bay
p3568
aVrooftop
p3569
aVparenti michael j
p3570
aVcurtis dunn
p3571
aVmajor road
p3572
aVcollector streets
p3573
aVsas dataset
p3574
aVorthographic
p3575
aVcity curbs and islands
p3576
aVart galeries
p3577
aVcalifornia state assembly
p3578
aVemployees veracation
p3579
aVrestraunts
p3580
aVstreet art
p3581
aVrent increase
p3582
aVfree way
p3583
aVbos district
p3584
aVsan francisco businesses
p3585
aVvoter registration
p3586
aVstreet, zip
p3587
aVtheater
p3588
aVnew businesses
p3589
aVcable cars
p3590
aVa shooting at 30th and mission last nigth
p3591
aVcity college board 2016
p3592
aVcity college board 2012
p3593
aVassembly
p3594
aVdrop inlet
p3595
aVrestaurant health inspections
p3596
aVbehest
p3597
aVstructures
p3598
aVmap of sf
p3599
aVfraud
p3600
aVcoastlines
p3601
aVpoor
p3602
aVsustain
p3603
aVsurplus funds list
p3604
aV855 folsom
p3605
aVflood data
p3606
aVfamily
p3607
aVtract id
p3608
aVsupersonic ads
p3609
aVstreetlamp
p3610
aVcharles walton
p3611
aVcensus tracts by zip codes
p3612
aVpedestrian collisions
p3613
aVaso
p3614
aVrents
p3615
aVaging and adult services
p3616
aVtoxic waste
p3617
aVmeter schedules
p3618
aVsan francisco, ca
p3619
aVvelocity
p3620
aVcensus block no water
p3621
aVcurrent
p3622
aVsan francisco bay trail
p3623
aVair photo
p3624
aVcommunity challenge grants
p3625
aVtransmission lines
p3626
aVstreets of sanfrancisco
p3627
aVimpervious surface
p3628
aVcampaign consultant employee
p3629
aVsupervisors districts
p3630
aVbus station
p3631
aV208 girard
p3632
aVoverweight
p3633
aV1 post
p3634
aV1 degree
p3635
aVsignal
p3636
aVcounty lines
p3637
aVconsultation
p3638
aVhappiness
p3639
aVform 460 schedule d
p3640
aVnatural gas
p3641
aVspeed limit compliance
p3642
aVcdr
p3643
aVheron
p3644
aVgross receipts
p3645
aVnewyork
p3646
aVart districts
p3647
aVtraffic analysis zone
p3648
aVpredict
p3649
aVsenior citizen
p3650
aVsalar
p3651
aVcontrol
p3652
aVtech company
p3653
aVbike injury
p3654
aV3849462
p3655
aVfemale
p3656
aVparking district
p3657
aVsrtm
p3658
aVblock numbers
p3659
aVminimum wage
p3660
aVprice housing
p3661
aVstreet features
p3662
aVwindow to wall ratio
p3663
aVsupervisoral
p3664
aVclimat
p3665
aVbuilding foot print
p3666
aVggnra
p3667
aVanalysis neighborhood
p3668
aVparty
p3669
aVmta routes
p3670
aVpedestrian flow
p3671
aVhenry albert villarreal
p3672
aV0435150
p3673
aVfarmer market
p3674
aVdolores
p3675
aVsfmta route gis
p3676
aVlimit
p3677
aVpensions
p3678
aVhomes
p3679
aV10b
p3680
aVanson mooney
p3681
aV100
p3682
aVsidewalk cleaning
p3683
aVrecreational facilities
p3684
aVcalm
p3685
aVrent median
p3686
aVsan francisco development pipeline
p3687
aVau-pair
p3688
aVbusiness improvement district
p3689
aV2016 pipeline
p3690
aVaging
p3691
aVtaskrabbit
p3692
aV\u005c street names
p3693
aVdonors
p3694
aV1480 larkin
p3695
aVgolden gate transit
p3696
aVtelecommunication
p3697
aVport of san francisco
p3698
aVcensus 200 data
p3699
aVcap rates
p3700
aVfloors
p3701
aVtransit lines
p3702
aVmoxxly
p3703
aVcarbon grill
p3704
aVsearch engine
p3705
aVretiro
p3706
aVsugar
p3707
aVsfpd calls for service
p3708
aVsan francisco age
p3709
aVcurrent year
p3710
aVdolores park
p3711
aVhygiene
p3712
aVcad map
p3713
aVbusiness type
p3714
aVwarriors
p3715
aVanimal care
p3716
aVadress
p3717
aVfrench
p3718
aVpublic graffiti
p3719
aVelderly
p3720
aVabsconders
p3721
aVlien
p3722
aVpedicab
p3723
aVgraff
p3724
aVspending - fte
p3725
aV94109
p3726
aVred light cameras
p3727
aVcomplete request for companies that have moved
p3728
aVbusiness ownership
p3729
aVplastic bag bag
p3730
aVkristian
p3731
aVassessor 2015
p3732
aVair conditioning
p3733
aVtokyo
p3734
aVreviews
p3735
aVschool gardens
p3736
aVnoise level
p3737
aVparcel apn
p3738
aVplanning open space
p3739
aVmedical cannabis dispensary
p3740
aVsharmin bock
p3741
aVopen data
p3742
aVsan francisco development pipeline 2014
p3743
aV94127
p3744
aVresidential energy use
p3745
aVmayor
p3746
aVtour
p3747
aVsan francisco green roofs
p3748
aVarts
p3749
aVlatitude longitude
p3750
aVmid market
p3751
aVbmr
p3752
aVsan francisco area
p3753
aV114 powell street, san francisco, ca 94102
p3754
aVsmart city data pooling
p3755
aVcounty outline
p3756
aVmark michael schulz
p3757
aVthird street
p3758
aVcabs
p3759
aVfilming locations
p3760
aVmurder statistics
p3761
aVwildfire
p3762
aVbuilding performance report
p3763
aVsan francisco public schools - points
p3764
aVsfgovtv
p3765
aVbuilding area
p3766
aVamount of police officers
p3767
aVnational park
p3768
aVlot lines
p3769
aVinvest in neigborhoods
p3770
aVpedestrian traffic
p3771
aVbarrier
p3772
aVsfpd stations
p3773
aVclosed business
p3774
aVhousing sales
p3775
aVworld topo map
p3776
aVhousing inspection
p3777
aVnotice of violation
p3778
aVresidential inclusionary
p3779
aVservices 311
p3780
aVinitiatives
p3781
aVfarmers' markets
p3782
aVstreet blocks
p3783
aVbriscoe
p3784
aVjob density in san francisco
p3785
aVpower enterprise
p3786
aVcoastal flooding
p3787
aVbusiness twax id
p3788
aVresidential projects
p3789
aVveteran affairs
p3790
aVeastern neighborhoods
p3791
aVair bed
p3792
aVlocal news
p3793
aVwireless telecommunications facilities
p3794
aVraw
p3795
aVhydrants
p3796
aVbuilding type
p3797
aVcity ukraine
p3798
aValper
p3799
aVcensus blocks 2010
p3800
aVpricing
p3801
aVufa
p3802
aVlobbyist meetings
p3803
aV311 complaints
p3804
aVresidential units
p3805
aVcontract data
p3806
aVtenants
p3807
aVbusiness directory
p3808
aVbike count
p3809
aVland registry
p3810
aVrestaraunt
p3811
aVsoup kitchens
p3812
aVcommerce and inventory
p3813
aVzoning districts shapefile
p3814
aVbay area beauty group
p3815
aVsan francisco census tracts
p3816
aVstreet restrictions
p3817
aVmunicipal solid waste
p3818
aVautomotive
p3819
aVpopulation size
p3820
aVpolitical contributions
p3821
aVfitness centers
p3822
aVcampaign finance data key
p3823
aVstreets san francisco
p3824
aVtax rates
p3825
aViin
p3826
aVschool budget
p3827
aVdistrict 8
p3828
aVsoil type
p3829
aVferry building
p3830
aVnumber of
p3831
aV101 post
p3832
aVshapefile bay
p3833
aVapartment units
p3834
aV"places of entertainment"
p3835
aV?""--></script><script>alert("xss")</script>
p3836
aVabuse
p3837
aVbulldog
p3838
aVseismic hazard zone
p3839
aVcar parking
p3840
aVmerchant list
p3841
aVcensus 2000 no water
p3842
aVemployee email
p3843
aVagenda
p3844
aVpayment
p3845
aVlos angeles
p3846
aVcity boundary shaprfile
p3847
aVvalverde construction
p3848
aVroutine
p3849
aVprogress
p3850
aVmeteres
p3851
aVbay area bike share
p3852
aVcupertino
p3853
aVsan francisco property assessment roll
p3854
aVsan fransico
p3855
aVcity property line map
p3856
aVlalanne fitness llc
p3857
aVcity expenditure
p3858
aVsan francisco construction
p3859
aV177 stillman street, san francisco, ca
p3860
aVbodies found in golden gate park
p3861
aVsf businesses
p3862
aV460 schedule e
p3863
aVvermin
p3864
aVsleep
p3865
aVground control
p3866
aVsf map
p3867
aVsfpl
p3868
aVcar sales
p3869
aVpot hole
p3870
aVsan francisco gdb
p3871
aVtenderloin district
p3872
aVelectric lines
p3873
aVsan francisco land use
p3874
aVla playa and judah
p3875
aVsafe surrender
p3876
aVperception
p3877
aVstreet speed limits
p3878
aVtenderloin map
p3879
aVcensus tract boundary
p3880
aVparking rate
p3881
aVsf basemap
p3882
aVpoints of interest
p3883
aVcity workforce
p3884
aVbsp
p3885
aVweb data
p3886
aVflow
p3887
aVtraffic citation
p3888
aVsf parking
p3889
aVbusiness license applications
p3890
aVwfs
p3891
aVsro hotel
p3892
aVblue zone
p3893
aVpharmacy
p3894
aVfire calls
p3895
aVhomless
p3896
aVconcealed weapons permits issued in 2013
p3897
aV2004 bike network
p3898
aVoctavia
p3899
aVtraffic stop
p3900
aVecb
p3901
aVpesticide regulation
p3902
aVrussell
p3903
aVmsm
p3904
aVsf solar
p3905
aVtrumark
p3906
aVtrash collection
p3907
aVdrone
p3908
aVuse of force
p3909
aVaddress data
p3910
aVlamp post
p3911
aVadministrative activities government
p3912
aVassessor's 2015 updates
p3913
aVbusiness san francisco
p3914
aVsocial services location
p3915
aVcenssu
p3916
aVpolice precincts
p3917
aVrent controlled
p3918
aVpayable
p3919
aV1004301
p3920
aVjazz
p3921
aVstate assembly
p3922
aVbonvin
p3923
aVregion
p3924
aVassessors roll data
p3925
aVmission district crime s
p3926
aVrailway
p3927
aVpos
p3928
aVturkey
p3929
aVhistorical district
p3930
aVmuni bus routes
p3931
aVshopping centers
p3932
aVtransit score
p3933
aVlakeshore district
p3934
aVwalkfirst
p3935
aVmap of crimes
p3936
aVpowerlines
p3937
aVsf pipeline
p3938
aVports
p3939
aVpostal codes
p3940
aVfish
p3941
aVon-street parking meters
p3942
aVartisana
p3943
aVrestricted parking
p3944
aVairport shape
p3945
aVprogram
p3946
aVsanborn map
p3947
aVcommercial pollution
p3948
aVlives restaurant
p3949
aVstreet parking hours
p3950
aVstreets of santa clara
p3951
aVsan francisco property assessment roll 2012
p3952
aVbuildings date
p3953
aVturnover
p3954
aVbusiness tax id
p3955
aVcontinental appliance
p3956
aV"><img src=x onerror=alert(1)>
p3957
aVrent cost
p3958
aVrecords request
p3959
aVuser
p3960
aVpolice activity8/12/15
p3961
aVpolitical
p3962
aVpd
p3963
aVstreet miles
p3964
aVholidays
p3965
aVmoving
p3966
aVanalysis
p3967
aVinclusionary requirements
p3968
aVvehicle miles
p3969
aVsan francisco roads
p3970
aV2015 q2
p3971
aValikhani
p3972
aVenterprise zone
p3973
aVbike friendly streets
p3974
aVcarmen chu
p3975
aVcontact lobbyists
p3976
aVsoft story buildings
p3977
aVhousing crisis
p3978
aVdemolition
p3979
aVpolution
p3980
aVcurrent advisories
p3981
aVlight poles
p3982
aVelection precincts
p3983
aVocean beach
p3984
aVsf street map directory
p3985
aVlandings
p3986
aVsfpd sectors
p3987
aVprivate parks
p3988
aVcrashes
p3989
aVbuilding ownership
p3990
aVconstruction class
p3991
aVsan boarn maps
p3992
aVlifelock
p3993
aVsan francisco crimes
p3994
aValert sf311
p3995
aVmumbai
p3996
aVbay area (general)
p3997
aVgreen infrastructure
p3998
aVcity block
p3999
aVbusiness account number 1013343
p4000
aVbay fill
p4001
aVcampaign finance - total expenditures by candidate
p4002
aVsf street
p4003
aVhealth code
p4004
aVsf realtor neighborhoods
p4005
aV20th ave permit
p4006
aVroads shapefile
p4007
aVbuildout
p4008
aVcivil rights
p4009
aVshapefile sfshore
p4010
aVwage theft prevention ordinance
p4011
aVemergency management
p4012
aVschool polygons
p4013
aVbart'
p4014
aVtransit stations
p4015
aVcoffeee
p4016
aVgreen park
p4017
aVcar traffic
p4018
aVsurvey 2014
p4019
aVmassage establishments
p4020
aVwind data
p4021
aVstreet widths
p4022
aVsfpd critical response team
p4023
aVcritical facilities
p4024
aVhistor
p4025
aVviolations code trc
p4026
aVozone tai
p4027
aV2014 housing
p4028
aVmark farrell
p4029
aVcity lot
p4030
aVoakland zoning districts
p4031
aVbike rack
p4032
aVfood deserts
p4033
aVlocker
p4034
aVcounseling
p4035
aVhenderson consulting inc
p4036
aVparcels with history
p4037
aVwales
p4038
aVsan francisco city boundary
p4039
aVshrimp boy
p4040
aVregistered restaurants
p4041
aVrestaurant safety
p4042
aVinspection food
p4043
aVwawona st
p4044
aVnumber of square blocks in sf
p4045
aV152113617
p4046
aVlobbyist directory
p4047
aVshapefile race
p4048
aVjon wu
p4049
aVbranch library
p4050
aVbateman
p4051
aVnoise reports
p4052
aVnumber of police
p4053
aVlfa, limited liability
p4054
aVpermit applications
p4055
aVlow income communities
p4056
aVsurvey monuments
p4057
aVstarup
p4058
aVprado
p4059
aVredistricting
p4060
aVgeocoder
p4061
aVflir sytem
p4062
aVsubsidy
p4063
aVon-sale
p4064
aVworker
p4065
aVellis act evictions
p4066
aVrental housing afford
p4067
aV150765130
p4068
aVdoctor visits
p4069
aVhud median income
p4070
aVscorecard
p4071
aVspent on housing
p4072
aVsf map rds
p4073
aVmap telegraph hill
p4074
aVbeauty salon in san francisco
p4075
aVcorporate
p4076
aVlatitude and longitude
p4077
aVprevious
p4078
aVwomen workers
p4079
aVslope map
p4080
aVattorney
p4081
aVcrowd
p4082
aVczech
p4083
aV2014 pipeline
p4084
aVnorthrop
p4085
aV20 jones
p4086
aVutility poles
p4087
aVdepartment of building inspection
p4088
aV"property tax"
p4089
aVassessor recorder
p4090
aVmanufacturing
p4091
aVtechnology companies
p4092
aVdollars
p4093
aVfire inspector
p4094
aVpublic bathroom
p4095
aVpot holes
p4096
aVsenate
p4097
aVparcel owners
p4098
aVsan francisco 2015
p4099
aV'*
p4100
aVgocery
p4101
aVstreet inventory
p4102
aVfire protection engineer
p4103
aVenergy consumption
p4104
aVsan francisco rental listings
p4105
aVlot size
p4106
aVveterans
p4107
aVtemporary no parking
p4108
aVscores
p4109
aVhigh traffic
p4110
aVkey walking streets
p4111
aVspokane wa
p4112
aVtermination from probation
p4113
aVsf ecology 1899
p4114
aVneighborhoods planning
p4115
aVdataset for car parking in india
p4116
aVconstruction type
p4117
aVsecured property
p4118
aVstreets island
p4119
aVlaundry
p4120
aVpolitical districts
p4121
aVmajor developers
p4122
aVpark land
p4123
aVhousing demographic
p4124
aVuniversitites
p4125
aVgreen businesses
p4126
aVcounty jail
p4127
aVsan francisco county boundaries
p4128
aVcontributor
p4129
aVcheuvattam
p4130
aVsf city limit
p4131
aVpune
p4132
aVtourist attractions
p4133
aVyrbuilt
p4134
aVopeb
p4135
aVpublic toilet
p4136
aVrevenue impound
p4137
aVshabuway franchising, inc
p4138
aVpublic works street
p4139
aVpaved roads
p4140
aVrehab
p4141
aVgis layers
p4142
aVpark groups
p4143
aVsan francisco contours
p4144
aV415-701-5493
p4145
aVbutterfly
p4146
aVmclaren park
p4147
aVtransitional housing
p4148
aVbirth rate
p4149
aVslope shapefile
p4150
aVfibre
p4151
aVjane kim finance
p4152
aV141 milton street san francisco, ca 94112
p4153
aV1gagf
p4154
aVshapefile transit station
p4155
aVsteyer
p4156
aVlocal business enterprises
p4157
aVopen space-city planning
p4158
aVfrancis nguyen
p4159
aVsupervisor distric
p4160
aVparking meter location for
p4161
aVfrancisco dem
p4162
aVdavid chiu
p4163
aVdolores park trash
p4164
aVsingapore
p4165
aVhiv planning council
p4166
aVgdb
p4167
aVresidential types
p4168
aVhieght
p4169
aVtenderloin central market
p4170
aVregio
p4171
aVpinrang
p4172
aVquarterly government barometer
p4173
aVinfill
p4174
aVrecpvery
p4175
aVinternship
p4176
aVpickup days
p4177
aVcoast line
p4178
aVtemporary signs
p4179
aVlung canser
p4180
aVuber]
p4181
aVforeclosed
p4182
aVinfluenza
p4183
aVppublic safety
p4184
aVroadway
p4185
aVfloor plan
p4186
aVsf bart
p4187
aVflir system
p4188
aVcurb shapefile
p4189
aVstreet basemap
p4190
aVpier construction
p4191
aVprivate commuter shuttles
p4192
aVroadways
p4193
aVpriority routes
p4194
aVparking shapefiles
p4195
aVregistration number
p4196
aVtrips
p4197
aV2000 census tracts
p4198
aVquarterly
p4199
aVtype of street
p4200
aVincome data
p4201
aVbike counts
p4202
aVinformation
p4203
aVpicnic on third
p4204
aV6524 032
p4205
aVmedi-cal beneficiaries
p4206
aVradio tower
p4207
aVpaper
p4208
aVland cover map
p4209
aVsfpd crime reporting plots
p4210
aVsan francisco, ca open data
p4211
aVstatus
p4212
aVdevelopment history
p4213
aVelivation
p4214
aVowners
p4215
aVconstruction permit
p4216
aVpavement to parks
p4217
aVbike collisions
p4218
aVencroachment permits
p4219
aVsell
p4220
aVbuidling permits
p4221
aVdennis herrera
p4222
aVpost street
p4223
aVimpact
p4224
aVgreywater permit
p4225
aVstreet segments
p4226
aVcondom
p4227
aVpmms
p4228
aVsf bike routes
p4229
aVhaight-ashbury
p4230
aVvisitor center
p4231
aVrestaurants hayes valley
p4232
aVenterprise map
p4233
aVquintara
p4234
aV"condo conversion lottery"
p4235
aVpda
p4236
aVploy ii
p4237
aVcar break in
p4238
aVmarrige licence
p4239
aVfund
p4240
aVexternal dataset streets of san francisco
p4241
aVenrollment
p4242
aVresidential rent stabilization board
p4243
aV925 harrison
p4244
aV94070
p4245
aVcity services
p4246
aV2030
p4247
aVrecent
p4248
aVj556569-01
p4249
aVpublic utilities
p4250
aVuncaseehd
p4251
aV911 call
p4252
aV'</script><script>alert(1)</script>
p4253
aVshort-term registry
p4254
aV1999 reports
p4255
aVhill steepness
p4256
aV040414
p4257
aVpublic arts
p4258
aVhome owners association
p4259
aVreal estate debt
p4260
aVlocal bussiness
p4261
aVmultipatch
p4262
aVrestaurants on market street
p4263
aVsf rec
p4264
aVencumbrance
p4265
aVemployees desity
p4266
aVblueprint
p4267
aVstreet fairs
p4268
aVsfpd_incident
p4269
aVmuni, *.shp
p4270
aVcorrections
p4271
aVpercel
p4272
aVfewer
p4273
aVoferta y demanda de san francisco
p4274
aV350 post
p4275
aV"department expenditures"
p4276
aVentertainment permit
p4277
aVrds
p4278
aVbay area highway
p4279
aVgeopraphic
p4280
aVmuir beach
p4281
aVstreets map
p4282
aVrem koolhaas
p4283
aVdelay
p4284
aVcar crash
p4285
aVeas addresses
p4286
aVnight life
p4287
aVkpi
p4288
aVcrime 2014 shapefile
p4289
aVshapefiles caltrain
p4290
aVpark trails
p4291
aVsan francisco city block
p4292
aVzoning by neighborhood
p4293
aVmuni stations gis
p4294
aVservice lines
p4295
aVsan francisco analysis neighborhoods
p4296
aVfire prevention
p4297
aVcannibis
p4298
aVprivately owned public spaces
p4299
aVoffice clusters
p4300
aVtree related case map
p4301
aVthings to do
p4302
aVresidential data
p4303
aV141 eddy street sf ca 93102
p4304
aVlabor force
p4305
aVmap san francisco
p4306
aVsf census
p4307
aVlapid inc.
p4308
aVdevelopment pipeline 2016
p4309
aVnon-emergency incident report
p4310
aVohlone
p4311
aVsan francisco parking hours
p4312
aVmichael lasala
p4313
aVnert
p4314
aVsan francisco building height
p4315
aVtouristic supply and demand
p4316
aVstores in mall
p4317
aVport jurdisdiction
p4318
aVfraud detection
p4319
aVlands end
p4320
aVculture and recreation
p4321
aVpayment received
p4322
aVmosaic
p4323
aVnon residential zoning
p4324
aVla rochelle
p4325
aVoff street
p4326
aVeconomic centers
p4327
aVhealth clonic
p4328
aVcensus 2010 census blocks for san francisco
p4329
aVparking revenue
p4330
aVplant database
p4331
aVcitywide survey
p4332
aVcentral waterfront
p4333
aVpedestrian counts
p4334
aVsubsidized housing
p4335
aVdawer fazil
p4336
aVsurvey control
p4337
aVgravitational
p4338
aVdistribution
p4339
aVsf land use 2014
p4340
aVno fault evictions
p4341
aVgis mapping for bicycles
p4342
aVelectric vehicle
p4343
aVpavement condition
p4344
aVstreets and street names
p4345
aV311 cases by channel
p4346
aVstate house
p4347
aV2014 development
p4348
aVproperty plats
p4349
aVparkig
p4350
aVvoting rates
p4351
aV1999
p4352
aVhsa operator monthly
p4353
aVskin cancer
p4354
aVroute stops
p4355
aVpizza
p4356
aVsfmta citation data
p4357
aVelectric vehicles
p4358
aVdata ok
p4359
aVsupermarkets
p4360
aVice cream stores
p4361
aVrecreational
p4362
aVlives restaurant inspection
p4363
aVgovernment services
p4364
aVdata storage
p4365
aVopen spaces- city planning
p4366
aVsf facilities
p4367
aVthe castro
p4368
aVpedestrian issues
p4369
aVregional measure 2
p4370
aVmelanie lok
p4371
aVurban agriculture
p4372
aVtechnical women workforce
p4373
aVinfrared
p4374
aVsf for everyone, no on proposition f, sponsored and major funding by airbnb
p4375
aVheat vulnerability
p4376
aVpayvment
p4377
aVpollutants
p4378
aVhousing inclusionary
p4379
aVanimal services
p4380
aVspecial sign
p4381
aVdpw maps
p4382
aVincome tax
p4383
aVnew start ups
p4384
aVcrime in sf
p4385
aVtrucks
p4386
aV1970
p4387
aV2012 sfo customer survey
p4388
aVbasements
p4389
aVmckenzies
p4390
aVsf freeway
p4391
aVnight
p4392
aVincome inequality
p4393
aVvehicle number
p4394
aValan nguyen;
p4395
aVnoise data north beach
p4396
aVmonths
p4397
aVschedule c
p4398
aVficticious bussiness names
p4399
aVmoccasin ca
p4400
aVnumber of establishments
p4401
aVneighborhood and population
p4402
aVmass transit
p4403
aVhunter's point
p4404
aVpacel
p4405
aVmayor's office of housing
p4406
aVsan francisco water
p4407
aVsan francisco property assessment roll 2013
p4408
aVpublic benches
p4409
aVprop a
p4410
aVprop j
p4411
aVcammuntily
p4412
aVmuslim
p4413
aVhealth department
p4414
aVheart rate and weight
p4415
aVlocation of high crime rate shapefile
p4416
aVrecreational parks
p4417
aV94102 demographics
p4418
aVwalking or biking
p4419
aVtrans
p4420
aVcitiworks
p4421
aVnlcd
p4422
aVredevelopment agency
p4423
aVjennifer wong
p4424
aVnoi
p4425
aVmiscellaneous permits
p4426
aVmedications
p4427
aVva services
p4428
aVspace
p4429
aVtree coverage
p4430
aV169 steuart st; san francisco, ca 94105
p4431
aVmurder by gun
p4432
aVmunicipality
p4433
aVcrowd sourcing
p4434
aVsan francisco unified school district
p4435
aVroad grade scale
p4436
aVtransamerica pyramid
p4437
aV"bed bugs"
p4438
aVwater map
p4439
aVrestaurant closing dates
p4440
aVleather
p4441
aVconsumer complaints
p4442
aVproperty management
p4443
aVraster dada
p4444
aVlinguistic
p4445
aVknh summer camps
p4446
aV1008 santiago street, san francisco, ca
p4447
aVjay walking tickets
p4448
aV516 ellis
p4449
aVeis
p4450
aV3rd st bridge
p4451
aVminor encroachment permits
p4452
aVkenya
p4453
aVpoop map
p4454
aVdisaster shelter
p4455
aVpopulation over 65 in zip code 94121
p4456
aVproperty prices
p4457
aVemployment dataset
p4458
aVwomen employed in tech
p4459
aVtotal energy consumption
p4460
aVparking meter hours
p4461
aVemergency routes
p4462
aVcivil grand jury
p4463
aVami
p4464
aVtotal renal care
p4465
aVsocioeconomic status
p4466
aVcitations parking
p4467
aV235 pine
p4468
aVrestaurant health inspection
p4469
aVtime spent walking
p4470
aVwind turbine
p4471
aV 
p4472
aVemployment rates
p4473
aVyoucaring
p4474
aVrunway
p4475
aVbusiness registration search
p4476
aVmilk
p4477
aVrecruite
p4478
aVlandmark shapefile
p4479
aVadvertising
p4480
aVmichel legrand
p4481
aVopen store
p4482
aVnijjar m s
p4483
aVdata set for car parking
p4484
aVa
p4485
aVcase-data
p4486
aVlerner,diana
p4487
aVurine
p4488
aVasess
p4489
aVsales per restaurant
p4490
aVsf pollution
p4491
aVstreets geocode
p4492
aVcarlson advisors
p4493
aVsan francisco companies
p4494
aVproperty assessor
p4495
aVsyria
p4496
aVschema
p4497
aVsmall cell
p4498
aVstd
p4499
aV15sf279
p4500
aVpopulation projections
p4501
aVtraffic bike
p4502
aVhomodice
p4503
aVbusiness listing
p4504
aVsan francisco census tract
p4505
aVaddress list
p4506
aVcow palace
p4507
aV16exc-3031
p4508
aVtransit station
p4509
aVland grant
p4510
aVzipped
p4511
aVshuemake
p4512
aVmuni ridership
p4513
aVshapefile muni
p4514
aVsection 8 housing
p4515
aVlandlord petition
p4516
aVwater body
p4517
aVpublic restroom
p4518
aVassessment appeals
p4519
aVcemetery
p4520
aVsfparkingmeters
p4521
aVtraffic lights pedestrian
p4522
aVapril 2016
p4523
aVgraywater
p4524
aVopen spaces-city planning
p4525
aVtrifusion yoga
p4526
aVshapefile demographic
p4527
aVermc
p4528
aVone-way
p4529
aVfire detection sensor
p4530
aVinvest in neighborhoods
p4531
aVrun
p4532
aVsfcvb
p4533
aVmary jung
p4534
aVwealth
p4535
aVnumber of low income households
p4536
aVsingapore building footprints
p4537
aVkidney
p4538
aVethics commission enforcement summaries
p4539
aVsan francisco bay shapefile
p4540
aVresidential projects with inclusionary requirements
p4541
aVpayables
p4542
aVamount of private vehicles
p4543
aVfire station call for service
p4544
aVfault lines
p4545
aVbogota
p4546
aVpower map
p4547
aVsoup
p4548
aVstreetsweep
p4549
aVsf plant
p4550
aVpilice
p4551
aVconsumerism
p4552
aVnoise abatement
p4553
aVmayor salary
p4554
aVenterprise address
p4555
aVkolkata
p4556
aVdata 2009 sfo survey
p4557
aVhouseholds with social security income
p4558
aVgreen roof top
p4559
aVzpning
p4560
aVvegetation shapefile
p4561
aVbasement
p4562
aVcity vendor
p4563
aVgross reciepts
p4564
aVd. barajas
p4565
aVtree issues
p4566
aVtree covr
p4567
aVplaces of interest
p4568
aVfour corner
p4569
aVsocial school event
p4570
aVparkbenches
p4571
aVcri,e
p4572
aVnumber of restaurants
p4573
aVcasey
p4574
aVsf find neighborhoods
p4575
aVcounty assessor's map
p4576
aVpathogen
p4577
aVlive music venues
p4578
aVbay view
p4579
aVpopulation and ethnicity
p4580
aVproperty price
p4581
aVmuni route
p4582
aVcranes
p4583
aVexpired
p4584
aVname, address, assessment tax roll data
p4585
aVcime
p4586
aVsheriff
p4587
aVtow-away
p4588
aVdepartment code
p4589
aVsurge
p4590
aVduboce triangle crime
p4591
aVasian population
p4592
aVfatality
p4593
aVtraffic accidents gis
p4594
aVcompatibility
p4595
aVdiversity
p4596
aVelation
p4597
aVliquor licenses
p4598
aVpublicly-accessible parking
p4599
aVfitbit
p4600
aVcurb cut
p4601
aVphill
p4602
aVmunicipal disclosure
p4603
aVpedestrian volumes
p4604
aVstudent populatin
p4605
aVprojectname
p4606
aVesquivel grading
p4607
aVelectricity consumption
p4608
aVseism
p4609
aVsf existing commercial buildings
p4610
aVno fault eviction
p4611
aV"registered business"
p4612
aVparks open spaces
p4613
aVshapefiles crime
p4614
aVbayview hunter point
p4615
aVmonte cristo
p4616
aVpopular baby name by race
p4617
aVdataset of datasets
p4618
aVcrime sf
p4619
aVoscar
p4620
aVbrasil
p4621
aVsmart ride
p4622
aVstreets name
p4623
aVfs scholar map
p4624
aVsurveyor
p4625
aVargonne
p4626
aVlesbian
p4627
aVcommunities
p4628
aVfema grant
p4629
aVbond
p4630
aVvenue
p4631
aVdiamond freight
p4632
aVcar registration
p4633
aVsunmin oh
p4634
aVfim
p4635
aVrealestate
p4636
aVsan diego
p4637
aVbayview 2010
p4638
aVvincent kircher properties
p4639
aVethnic population
p4640
aVtorist attraction
p4641
aVsupply chain
p4642
aVmap sf
p4643
aVtesting
p4644
aVmaster data
p4645
aVhotel sales tax
p4646
aVnosie
p4647
aVrqzj-sfat.json
p4648
aVsupervisor 2013
p4649
aVsidewalk cafe
p4650
aVgateview
p4651
aVsenior homes
p4652
aVart galleries
p4653
aV'*.gdb
p4654
aVfast food retailers
p4655
aVactive businesses
p4656
aVdisabled access requirements for submittal
p4657
aVhome price
p4658
aVquality of water
p4659
aVsf crime
p4660
aVyerba buena island
p4661
aVcensus 2010 block groups
p4662
aV2014 energy benchmark 285 geary
p4663
aVuniversity food
p4664
aVgovernment building
p4665
aVtrace
p4666
aVpipeline 2014 q3
p4667
aVtraffic infractions
p4668
aVtennis
p4669
aVlanding
p4670
aVtaxi cab
p4671
aValameda census
p4672
aVsflands
p4673
aVdrive
p4674
aVocc complainants by age 2004 9
p4675
aVshit
p4676
aVassessed value
p4677
aVnonprofit salary
p4678
aVwarehouse
p4679
aVelectrical permit
p4680
aVenergy audit
p4681
aV94108
p4682
aVrichard chiriboga
p4683
aVemployee annual report
p4684
aVphysical education
p4685
aVsf bikeway
p4686
aVfacilities maintenance
p4687
aV1992
p4688
aVwater treatment
p4689
aVhiv aids
p4690
aVenterovirus
p4691
aVdunbar armored
p4692
aVsan francisco bay area open space
p4693
aVbusiness pbc
p4694
aV2015-009422enf
p4695
aVkayak
p4696
aVterminated during probation
p4697
aVrealty
p4698
aVminutes spent walking
p4699
aVgeneration z
p4700
aVmajor roads
p4701
aVforeign born population
p4702
aVparks map
p4703
aVtheft shapefile
p4704
aVdig once
p4705
aVmichael jeff raspberry
p4706
aVsan francisco block
p4707
aVmuny
p4708
aVemployment by sector
p4709
aVmail
p4710
aVmunicipal code
p4711
aVstreet islands curbs
p4712
aVliving
p4713
aVsan francisco zip codes
p4714
aVparking meter pricing
p4715
aVgis street center
p4716
aVbayfill
p4717
aVcrim
p4718
aVprotected
p4719
aVventure
p4720
aVdepartment of public health
p4721
aV"bonaguro"
p4722
aVtheatre
p4723
aVwidth
p4724
aVelderly housing
p4725
aVbay area building
p4726
aVblack
p4727
aV94123
p4728
aV20th ave
p4729
aVproperty rents
p4730
aVtennenbaum
p4731
aVbuild year
p4732
aVstudent-weight-status-category-reporting-results-beginning-2010
p4733
aVf line
p4734
aVhousing balance
p4735
aVhyan
p4736
aVsurface temperature
p4737
aVshape file street
p4738
aVmortgages
p4739
aVtobacco permits
p4740
aVself serve
p4741
aVhsa 90 day emergency shelter waitlist
p4742
aVphysical contours
p4743
aVassessor's
p4744
aVgross
p4745
aVcrime san fransisco
p4746
aVproperty deed
p4747
aVbay street
p4748
aVparcel maps
p4749
aVstreet sweeper scheduled routes
p4750
aVcouncil districts
p4751
aVgyms
p4752
aVtournahu george l
p4753
aVwater district
p4754
aVsf crimes shapefile
p4755
aVansa
p4756
aVstate employe
p4757
aVthe conversation
p4758
aVcity names
p4759
aVsitting
p4760
aVsub way
p4761
aVbusstop
p4762
aVschool funding
p4763
aV906
p4764
aVcrime statistic
p4765
aVsan francisco transportation
p4766
aVcinema
p4767
aVhousing units removed protected
p4768
aVhealth access
p4769
aVpurchases
p4770
aVsf shore shapefile
p4771
aVmunicipal rail stops
p4772
aVbus stop shapefile
p4773
aVcso
p4774
aVsfmta public routes
p4775
aVpost id
p4776
aVelectricity lines
p4777
aVfirm
p4778
aVfuture development
p4779
aVsmart meters
p4780
aV1999reports
p4781
aVfunding
p4782
aVsfpd district
p4783
aVevaluation
p4784
aVuncashed checks
p4785
aVsf city survey
p4786
aVtrolly
p4787
aVbuilt
p4788
aVonsen
p4789
aVstreetcenterlines
p4790
aVneighborhood parks
p4791
aVlot map
p4792
aVmotorcycles
p4793
aVcity state
p4794
aVsan francisco data
p4795
aVnoel larios
p4796
aV'></script><script>alert(1)</script>
p4797
aV1445 lombard
p4798
aVenergycap
p4799
aVparks shp
p4800
aVjob density data
p4801
aVgypsy
p4802
aVfood truk
p4803
aVglen canyon
p4804
aVreal-estate value
p4805
aV1013117
p4806
aVbicycle lane
p4807
aVsclines
p4808
aVbiz
p4809
aV640 polk
p4810
aV.xlm
p4811
aV.xls
p4812
aVprivately owned
p4813
aVpipeline q3
p4814
aVtiff
p4815
aV?""--></script><script>alert("mizo")</script>
p4816
aVactive employees by union and department
p4817
aVseniority list local 6
p4818
aVcalvin sharp
p4819
aVlost property
p4820
aVmeter parking rate
p4821
aVhousing historical
p4822
aVsea wall
p4823
aVelect supervisorial district
p4824
aVshapefile bicycle
p4825
aVmural
p4826
aVavailability
p4827
aVaccess
p4828
aVsan francisco bay contaminated
p4829
aVsnapshot of san francisco development pipeline
p4830
aVgis parcels
p4831
aVcasarc
p4832
aVfestivals
p4833
aVdhr
p4834
aVgross domestic product
p4835
aVhomeless youth
p4836
aVaccount
p4837
aV44 holloway
p4838
aVtaxable value
p4839
aVaddiction
p4840
aVfilm san francisco
p4841
aVsexual consent
p4842
aVhotel revenue
p4843
aVfundraising
p4844
aVindustries
p4845
aVsoil map
p4846
aVla
p4847
aVsid
p4848
aVelection result
p4849
aVpreschool
p4850
aVhomeless gis
p4851
aVoffice buildings
p4852
aVprivate vehicle
p4853
aVadult probation
p4854
aVopen parks
p4855
aVstreet restriction
p4856
aV"ryan white"
p4857
aVclimate and health data
p4858
aVmarriage license joanne minsky
p4859
aVregistered businesses in san francisco
p4860
aVtl_2010_06075_tabblock10
p4861
aVindialegal
p4862
aVday projects
p4863
aVlist of streets and intersections
p4864
aVtransit corridors 0 miles 1 note: for neighborhood commercial areas, see map 5: generalized neighborhoods commercial land use and density plan. note: this map does not illustrate mixed-use areas, which may also contain elements of commerce and industry. map 00 use: arcmap 1:70,650 scale for this template san francisco
p4865
aVparcel dimension
p4866
aVhomeless beds
p4867
aVtow zone enforcement
p4868
aV"historic preservation"
p4869
aVsupervisor district 3
p4870
aVgreen street
p4871
aVtext
p4872
aVhomeowner
p4873
aVstaff
p4874
aVsan francisco base map
p4875
aVset top box
p4876
aVpave
p4877
aVtree removal
p4878
aVhigh injury pedestrian
p4879
aVebola
p4880
aVfisherman's wharf
p4881
aVtransit lane
p4882
aVcost of rent
p4883
aVsf dataset
p4884
aVassessor report
p4885
aVdevelopment permits
p4886
aVtransportation flow
p4887
aVplay area
p4888
aViot
p4889
aV94116 restaurant
p4890
aV1 market
p4891
aVpotential medical cannabis
p4892
aVheritage
p4893
aVpost- employment restriction waivers
p4894
aVshopping center locations
p4895
aVfull time employees
p4896
aVauthority
p4897
aVpublic events
p4898
aVstudents
p4899
aVcrossing
p4900
aVgifts
p4901
aVboards
p4902
aVlate contributions
p4903
aVsouth park
p4904
aVsan francisco public school
p4905
aVshapefile airport
p4906
aVdropbox
p4907
aVgreywater
p4908
aV"small business"
p4909
aVopen_business_locatio
p4910
aVbuilding footprints shapefile
p4911
aVj
p4912
aVcensus income
p4913
aVminutes
p4914
aV150327887
p4915
aVccsf digital basemap cad files
p4916
aVellen hu
p4917
aVsouth bay
p4918
aVaccessible parking
p4919
aVsfra
p4920
aVconnecticut zip codes
p4921
aVcatering
p4922
aVsara reek
p4923
aVrape kit
p4924
aVjaipur
p4925
aVparis
p4926
aVnon profits
p4927
aVroderick baltazar
p4928
aVshapefile city owned
p4929
aVcooperative
p4930
aVwelfare
p4931
aVnail
p4932
aVrestaurants san francisco
p4933
aVneighborhood marketplace initiative
p4934
aVeconomic sector
p4935
aV proportion of households not living in overcrowded conditions
p4936
aVconstruction permit data
p4937
aVpublic records
p4938
aVplastic bag ban
p4939
aVtopographical
p4940
aVcharging
p4941
aVtrees ownership
p4942
aVurban open spaces
p4943
aVd10 ami
p4944
aVtype 21
p4945
aVgreen open space
p4946
aVaida lane
p4947
aVgovernment facilities
p4948
aV3504/019
p4949
aVzushi
p4950
aVdistrict supervisors
p4951
aVlocation community gardens
p4952
aVton
p4953
aVraster map sf
p4954
aVperformance measurement
p4955
aVinspiro
p4956
aVqueer
p4957
aVroberries
p4958
aVrentallisting
p4959
aVfootprint shapefile
p4960
aVcategorical data
p4961
aVdistrict shapefile
p4962
aVstreet layer
p4963
aVgames
p4964
aVrelease from probation
p4965
aVhomeless counts
p4966
aVsearch
p4967
aVcorey, canapary
p4968
aVexpenses
p4969
aVgenrification
p4970
aVproposed
p4971
aVparkong restrictions
p4972
aVhigh school drop out rates
p4973
aVtoll fee
p4974
aVsan francisco international hostel
p4975
aVjudge
p4976
aVpublic streets
p4977
aVcencus
p4978
aVofficer
p4979
aVyellow cabs
p4980
aVstore open
p4981
aVtheia moon
p4982
aVmalaysia
p4983
aVstreets network
p4984
aVgarbage collection schedule
p4985
aVhsa
p4986
aVhutcherson
p4987
aVtrips by
p4988
aVcity owned facilities
p4989
aVcivic
p4990
aVkezar
p4991
aVmashup
p4992
aVlevi strauss co
p4993
aVnode
p4994
aVpermitting
p4995
aVpublic transit score
p4996
aVfootball
p4997
aVmiscellaneous
p4998
aVsinbad's
p4999
aVparking management district
p5000
aVhousing projects
p5001
aVmap of 9 counties
p5002
aVemployees department
p5003
aVasset disclosure
p5004
aV2080 washington
p5005
aVvisitor bureau
p5006
aVsq. ft.
p5007
aVcriminal arrest warrant record
p5008
aVsfmta_bikeway_network.zip
p5009
aVbaseball
p5010
aVpipeline q4 2013
p5011
aV559 miramar
p5012
aVpost
p5013
aVthree industries
p5014
aVmemory
p5015
aVlocal
p5016
aVpolitical unit
p5017
aVnursing
p5018
aV2010 tract population
p5019
aVpriority route
p5020
aVeco bay
p5021
aVmarketing team
p5022
aVcommodity
p5023
aVpolice salary
p5024
aVcourthouse
p5025
aVspur
p5026
aVbound
p5027
aVfarmer's markets
p5028
aVnew business licenses
p5029
aVnotary
p5030
aVsanfranciscomodeshare
p5031
aV119 taraval
p5032
aVsanchez
p5033
aVwhite
p5034
aVunits removed protected
p5035
aVduis
p5036
aVvolunteer work
p5037
aVpedicab licenses
p5038
aVtrafficking
p5039
aVhistorical sites
p5040
aVthe pando company
p5041
aVhousing facts
p5042
aVbrigitte gallaread-wilson
p5043
aVparcel ownership
p5044
aVdamaged property
p5045
aVcrimw
p5046
aVcyber crime
p5047
aVpopulation 2000
p5048
aVpercent tenants
p5049
aVsfparking
p5050
aVwater and sewer pipes
p5051
aVhousing per unit
p5052
aVeas_addresses_with_units.dbf
p5053
aVcounter culture artist management
p5054
aVhistoric buildings
p5055
aV7220/001b
p5056
aVpoo
p5057
aVroad centerlines
p5058
aVdowntown trees
p5059
aVmichael webster
p5060
aVcareer
p5061
aVtelephone
p5062
aVnew business license
p5063
aVdbi complaints
p5064
aV"street light"
p5065
aVdriver
p5066
aVbernal heights
p5067
aVparole
p5068
aVviolent
p5069
aV846 junipero serra blvd 94127
p5070
aVjapantown
p5071
aV'///
p5072
aVinflation
p5073
aVmary jung [dccc ad 19 2016]
p5074
aVon time
p5075
aV311 discarded syringes
p5076
aVmap street
p5077
aVpark meter
p5078
aVmetheorology
p5079
aVcommunication
p5080
aVcrime july 2012
p5081
aVprior year
p5082
aVwholesale
p5083
aVregents
p5084
aVangel bateman
p5085
aVdirectory
p5086
aVall
p5087
aVstreet intersections
p5088
aVopportunities
p5089
aVtop sales tax owners
p5090
aVrats
p5091
aVestoppels
p5092
aVq4 2014
p5093
aVrecharge
p5094
aVmuni accidents
p5095
aVcity contractors
p5096
aVcongestion management program
p5097
aVgps data
p5098
aVbus shapefile
p5099
aVpic codes
p5100
aVheight bulk district
p5101
aVshort
p5102
aVshade
p5103
aVrentals
p5104
aVprsticide
p5105
aVusa crime statistics - 2015
p5106
aV06/19/2015
p5107
aVfb global
p5108
aVtaxes revenue
p5109
aVdrinking place
p5110
aVcolombia
p5111
aVtransit shape file
p5112
aVstory
p5113
aVboards and commissions
p5114
aVarchitect
p5115
aV911 fire
p5116
aVstreet steepness
p5117
aVflir syste
p5118
aVsocial dataset
p5119
aVstreets in san francisco
p5120
aVfire 2015
p5121
aVnorthbeach market
p5122
aVnumber of apartment units
p5123
aVwindows
p5124
aVtax assessor
p5125
aVcrime in portola district of sf
p5126
aVdelinquent
p5127
aViec
p5128
aVrichard lane
p5129
aVoff sale
p5130
aVhouse price by zip
p5131
aVgnis
p5132
aVcorruption
p5133
aVkorea
p5134
aVparcels gis
p5135
aV2761 bryant
p5136
aVbarometer
p5137
aVharbour
p5138
aVpg
p5139
aVbusiness registered in san francisco
p5140
aVstreet-use
p5141
aVunits shapefile
p5142
aVhealthy
p5143
aVindustrial facilities
p5144
aValternative fuel
p5145
aVsamsara
p5146
aVhome burglaries
p5147
aVsolar power
p5148
aVoneway
p5149
aVping pong
p5150
aVoutdoor sensor lights
p5151
aV2010 us census data
p5152
aVwater demand
p5153
aVschool locations
p5154
aVvw6y-z8j6
p5155
aVsan francisco commercial buildings energy
p5156
aV2005 pipeline report
p5157
aVtrc codes
p5158
aV.drg
p5159
aVekno
p5160
aVcrane
p5161
aVinformation and reports
p5162
aVcensus2000_blkgrp_nowater.shp
p5163
aVsingapore shapefiles
p5164
aVrecreation programs
p5165
aV"inclusionary housing"
p5166
aVmcdonnell
p5167
aVtransit priority
p5168
aVtraffic signs
p5169
aVlease holedrs
p5170
aVshanghai
p5171
aVbuilding blocks
p5172
aVchu do
p5173
aVcrime data sf
p5174
aVschool sites
p5175
aVyouth and seniors
p5176
aVraymond chow
p5177
aVmobile food permit
p5178
aVfarallon
p5179
aVparking near usf
p5180
aVnoise levels
p5181
aVdph complaints
p5182
aVhomicides 2015
p5183
aVproperty assessment 2014
p5184
aVcbds
p5185
aVtract 2000
p5186
aV74 oria
p5187
aVlow-income population
p5188
aVland owners
p5189
aVrestricted streets
p5190
aVplanning records
p5191
aVtram
p5192
aVsf topography
p5193
aVvallejo chapefile
p5194
aVpolice boundary
p5195
aV8204
p5196
aVemployee injury
p5197
aVwhom has died at 445 athens street
p5198
aVairport transit
p5199
aVsquare footage city blocks
p5200
aVaccent
p5201
aVland use"
p5202
aVholland
p5203
aVstock market
p5204
aVsan francisco municipal buildings 2013
p5205
aV2008 crime data
p5206
aVbusiness-registered-san francisco
p5207
aVpolice records
p5208
aVseneca systems
p5209
aVcost to build a home
p5210
aVlitigation
p5211
aVservice calls
p5212
aVassessment number
p5213
aV"place of entertainment"
p5214
aVsan francisco fire station call for service
p5215
aVshapefile san francisco bay water
p5216
aVsan francisco cad
p5217
aVebt
p5218
aVenterprise business zones
p5219
aVoverpayment
p5220
aVemployee compensation 2013
p5221
aVgrowth
p5222
aV"secured property assessment"
p5223
aVbeaver street
p5224
aV1748029
p5225
aVmalls
p5226
aVpark and recreation
p5227
aVwhale
p5228
aVmfd
p5229
aVprotected habitats
p5230
aVsf bike map
p5231
aVploy 2
p5232
aVneighborhood demographics
p5233
aVsan francisco business license for disability rights california
p5234
aVtaxi medallion
p5235
aVpurple pipe
p5236
aVneighbour hood score
p5237
aVcity border
p5238
aVpay 2010
p5239
aVexcessive rent
p5240
aVmayor ed lee for san francisco
p5241
aVtemp
p5242
aV"john ortiz"
p5243
aVsf streets shapefile
p5244
aVhistoric landmark
p5245
aVharold ave
p5246
aVsalla vaerma-jadlos
p5247
aVvenus factor system
p5248
aVmuni stop
p5249
aVillegal immigrant
p5250
aVcensus block shapefile
p5251
aVbicycle volume
p5252
aVunemployment rate
p5253
aVdog liccense
p5254
aVpublic official
p5255
aVcar-shyare
p5256
aVcompliance
p5257
aVtherapy stores inc
p5258
aVfrontage
p5259
aVcity salary
p5260
aVwest portal
p5261
aVmechanic
p5262
aVmilitary
p5263
aVroad centerline
p5264
aVdpw violation
p5265
aVbuilding codes
p5266
aVadministrative boundary
p5267
aVzoning variance
p5268
aVblock 4700
p5269
aVrevenue from impound vehicle
p5270
aVdriving under the influence
p5271
aVhyatt
p5272
aVborderlands cafe
p5273
aVcensus blocks 2000 no water
p5274
aVbuild data
p5275
aValias
p5276
aVtrafic transportation
p5277
aVburglary in tenderloin
p5278
aVsanchex
p5279
aVzoninh
p5280
aVblklot
p5281
aVbay area density
p5282
aVblock 2010
p5283
aVethics filings
p5284
aV"spicy garden"
p5285
aVsan francisco census
p5286
aVconsumer complain
p5287
aVsensors
p5288
aVkwok yee
p5289
aVemployee directory
p5290
aVsan francisco bay delta
p5291
aVmental healt
p5292
aVaddress shapefile
p5293
aVgreenspace
p5294
aVby use
p5295
aVbacon
p5296
aVahmed
p5297
aVtnc drivers
p5298
aVplanning commission president
p5299
aVshapefile tree
p5300
aVchildren living in sf
p5301
aVcar-share
p5302
aVdrought
p5303
aVcamp
p5304
aVstreet curbs
p5305
aVspicy garden
p5306
aV"dog owners"
p5307
aVdry ice
p5308
aVccs international, incorporated
p5309
aVassessors block
p5310
aVbasebasemap street centerlines shapefile
p5311
aVconstruction pipeline
p5312
aVbuilding energetic
p5313
aVfelony
p5314
aV.dta
p5315
aVsffind neighborhood
p5316
aVbuildings gps
p5317
aVbart bay area
p5318
aVbuilding height shapefile
p5319
aVdccc
p5320
aVfilm release
p5321
aVflower market
p5322
aVpizza joint
p5323
aVbusiness activity
p5324
aVb6pj-gt35
p5325
aVfeed
p5326
aVliore milgrom-gartner
p5327
aVneighborhood, census
p5328
aVacoustics
p5329
aVhousehold income block level
p5330
aVblock 4700-039,40,41,43,52
p5331
aVcampaign loans
p5332
aVsf city boundary
p5333
aVst. james
p5334
aVmashhad
p5335
aVcar travel
p5336
aVbike cri
p5337
aVemt
p5338
aVfppc form 460
p5339
aVcirs
p5340
aVquality of life
p5341
aVbarcode
p5342
aVbrokerage
p5343
aVata.sfgov.org-sn2k-q974.csv
p5344
aVcitizens
p5345
aVwildfires
p5346
aVvendor payments (vouchers)
p5347
aVbay outline'
p5348
aVhousing rates
p5349
aVassessessment
p5350
aVofficengine
p5351
aVzoing
p5352
aVsf zip codes
p5353
aVcampaign consultant employee lobbying
p5354
aVdeveloped lad
p5355
aV2005 housing inventory
p5356
aVcalifornia state
p5357
aVcentral business districts
p5358
aVaccounting
p5359
aVdui arrests
p5360
aVbusiness portal website
p5361
aVproperty taxes'
p5362
aVcaltran
p5363
aVname of business
p5364
aVcomprehensive financial annual report
p5365
aVirrigation
p5366
aVaccesor
p5367
aVvenearth group, llc
p5368
aVbay area census tract shapefile
p5369
aVcenter city
p5370
aVheight districts
p5371
aVbuilding plan
p5372
aVveg
p5373
aVbuilding classification
p5374
aVhealth survey
p5375
aVschool staffing
p5376
aVclean city data report
p5377
aVrent affordability gap
p5378
aVcenus shapefile
p5379
aVcities shapefile
p5380
aVassault rate
p5381
aVhigh tide
p5382
aVmaurice fisher
p5383
aVparcel shapefiles
p5384
aV9-1-1
p5385
aVcell phone prices
p5386
aVponding
p5387
aVcompanies by industry
p5388
aVdistrict demographics
p5389
aVbuildings san francisco
p5390
aVgis shapefiles
p5391
aVjob posting
p5392
aVxem trieu
p5393
aVcollege graduates
p5394
aVclass code 07
p5395
aVriders
p5396
aVabortion
p5397
aVbike map
p5398
aVhigh injury cooridors
p5399
aVbranch libraries
p5400
aVbay cad
p5401
aVamerican national income
p5402
aVcampaign finance pacs
p5403
aVholliday
p5404
aVcampaign payments made
p5405
aVtrees located in sf
p5406
aValzheimers
p5407
aVencampment
p5408
aV311 waitlist
p5409
aVapplications
p5410
aVartirials
p5411
aVbike network dataset
p5412
aVbikeline
p5413
aVstate parks
p5414
aVandale
p5415
aVgreen job
p5416
aVchaz long
p5417
aVanimal waste
p5418
aVcnsus
p5419
aVcontainer
p5420
aVcentralized commission
p5421
aVpiers
p5422
aVcorporate tax
p5423
aVcolumbarium
p5424
aVcounty border
p5425
aVprogramming
p5426
aVboundery
p5427
aV1016406
p5428
aVtransit center
p5429
aVcar owners
p5430
aVboulevard
p5431
aVcita
p5432
aVaddresses on road
p5433
aVbudget general services
p5434
aVassessor shapefile
p5435
aVmotor vehicles
p5436
aVdiabete
p5437
aValley
p5438
aVambulane
p5439
aVyue chen
p5440
aVlaws
p5441
aVbirthplaces
p5442
aVhcso
p5443
aVflower market project
p5444
aVcongressional
p5445
aVsocial security
p5446
aVelevation map
p5447
aVparking cost
p5448
aVshopping center
p5449
aVxoning
p5450
aVhousing overview
p5451
aVcatch basins
p5452
aVspecial assessment
p5453
aVdata catalogue
p5454
aVshapefile shoreline
p5455
aVsf police
p5456
aVcars in richmond
p5457
aVcommunity chanllenge grants
p5458
aVaqpn 3656/004
p5459
aVbuilding code
p5460
aVgreen space shape
p5461
aVs
p5462
aVworkplace
p5463
aVcensus tract 1990
p5464
aVcity planning neighborhoods
p5465
aVcalifornia academy of sciences
p5466
aVcaltrain station
p5467
aVparasail
p5468
aVairtrain
p5469
aVnewspaper
p5470
aVbike ownership
p5471
aVlet blu
p5472
aVcontractor listing
p5473
aVcommunities of conern
p5474
aVfull time employees by job classification
p5475
aVcity seal
p5476
aVcollge
p5477
aVchong luo
p5478
aVallocation
p5479
aVharris
p5480
aVantioch,ca
p5481
aVovertime
p5482
aVdiscrimination eeoe
p5483
aV211
p5484
aVcommuter benefits
p5485
aVplanning data
p5486
aVland use shapefile
p5487
aVlebanon
p5488
aV94131
p5489
aVplanning neighborhoods shapefile
p5490
aVcentral business district
p5491
aVpark facilities
p5492
aVclean city feces
p5493
aVtia matinez
p5494
aVcensus 2000 nowater
p5495
aVaverage property values by districts
p5496
aVcalifornia polygon
p5497
aVsubscriber
p5498
aVcomic book stores
p5499
aVpedestrian count
p5500
aVlane
p5501
aVstreet dedications
p5502
aVadult women in san francisco
p5503
aVestoppel
p5504
aVpark evaluation
p5505
aVbulky item pick up
p5506
aVblock pattern
p5507
aVad
p5508
aVintersection points
p5509
aVap
p5510
aVcity states
p5511
aVcooperative housing
p5512
aVcivil service commission
p5513
aVu4y3-k4vs
p5514
aV1445
p5515
aVcongress
p5516
aVbuisnesses
p5517
aVlicense plates
p5518
aVrental in us
p5519
aVconsstruction class
p5520
aVtv
p5521
aVadapt
p5522
aVcity attractions
p5523
aVgis mapping
p5524
aVactive blocks
p5525
aVhttp:data.sfgov.org
p5526
aVbusroute
p5527
aVcommercial building performance report 2010-2014
p5528
aVbase station
p5529
aVdepartment of public health complaints
p5530
aVsfusd school phone numbers
p5531
aVclickstream
p5532
aVnumber of city blocks
p5533
aVapn 3656-004
p5534
aVdavid owen
p5535
aVmuni transit
p5536
aVap 201 california
p5537
aVconservation sistricts
p5538
aVvendor payments (purchase order summary)
p5539
aVcity express
p5540
aVchild care centers locations
p5541
aVemission
p5542
aVfootball match
p5543
aVbuildings shapefile
p5544
aVatm
p5545
aVsan francisco city lands
p5546
aVlot block
p5547
aVvisitacion valley community center
p5548
aVwire map
p5549
aVwater districts
p5550
aVcar sale
p5551
aVsan francisco county city
p5552
aVrashad eid design
p5553
aVhomeowner association
p5554
aVhilton
p5555
aVbicycle injur*
p5556
aVtrade
p5557
aVdata set inventory
p5558
aVbicycle injury
p5559
aVengland
p5560
aVauthentic8, inc
p5561
aVpsychology
p5562
aV15599895
p5563
aVbirth record
p5564
aVmiscellaneous permits referred to the planning department by other city or state agencies
p5565
aVapartment building plans
p5566
aVjob classification
p5567
aVstreet slopes
p5568
aV.cvs
p5569
aVsf census block
p5570
aVhi phng
p5571
aVcbd map
p5572
aVcondominium conversion
p5573
aVcall volume
p5574
aVstairs
p5575
aVsf income
p5576
aVtwister
p5577
aVtalbot cafe
p5578
aVcesus 2000
p5579
aVcityproperty
p5580
aVmap service
p5581
aVbreeze
p5582
aVlucky penny
p5583
aVclearning
p5584
aVparks'
p5585
aVmicrosoft
p5586
aVbayview, san francisco
p5587
aVnasdaq
p5588
aVbrownfile
p5589
aVnumber of tickets
p5590
aVscorecards
p5591
aVcensus shoreline shapefile
p5592
aVgiants
p5593
aVlombard
p5594
aVconstituent
p5595
aVbanner
p5596
aVcrv
p5597
aVbayview biking
p5598
aVcars 2014
p5599
aVauthentic8
p5600
aVchange in ownership
p5601
aVcommunity map
p5602
aVfood bank
p5603
aVbusiness verification
p5604
aVunsheltered
p5605
aVacqua e sapone
p5606
aVwater bay
p5607
aVmountain view
p5608
aVload
p5609
aVgis street
p5610
aVsunset district
p5611
aV311 information requests by month
p5612
aVmuni tracks
p5613
aVjudicial
p5614
aVbuilding foot prints
p5615
aVas built
p5616
aV1999 crime
p5617
aVlevels
p5618
aVcensus area
p5619
aVaddress point nyc
p5620
aVbank churn
p5621
aVcity department agency
p5622
aVcrime statsitics
p5623
aVbiondivino
p5624
aVemployee investment
p5625
aVfloor area ratio
p5626
aVbike commute
p5627
aVaustralia
p5628
aVschools shapefile
p5629
aVpopulation desnity
p5630
aV3/1/20016
p5631
aVbusiness account number search
p5632
aVveterinary
p5633
aVsfwater
p5634
aVfreeway shapefile
p5635
aVbasketball court
p5636
aVfood scores
p5637
aVsightseeing
p5638
aVhousing rent
p5639
aVelevation san francisco
p5640
aVoxonr
p5641
aVcic
p5642
aVmarriage certificate
p5643
aVuv
p5644
aVuk
p5645
aVnavigation center
p5646
aV311 tree map
p5647
aVcodes
p5648
aVcity college board 2015
p5649
aVno parking signs
p5650
aVcensus block centroids
p5651
aVacs demographic
p5652
aVjohnny rockets
p5653
aVzoning districts - march 2005
p5654
aVpolice graffiti
p5655
aVcity divisino boundaries
p5656
aV1454 shafter
p5657
aVsfpd crimes
p5658
aVbuilding2011
p5659
aVbuilding2012
p5660
aVneighborhood code
p5661
aVbicycle counter
p5662
aVmurder breakdown by race
p5663
aVafrican american population
p5664
aVland type
p5665
aVparking off-street
p5666
aVcnnn
p5667
aVaterial
p5668
aVbuilding ayear
p5669
aVled
p5670
aVviolations code
p5671
aVbiodiversity
p5672
aVcasino
p5673
aVvoter precincts
p5674
aVbuilding footprintss
p5675
aVhilo club
p5676
aVcampaign finance - summary of third party disclosure forms regarding san francisco candidates - board of supervisors - district 8 - november 4 2014
p5677
aVcolleges in san francisco
p5678
aV2015 quarter 3
p5679
aVcliff house
p5680
aVzonning
p5681
aVtableau
p5682
aVaerial photograph
p5683
aVbuilding department
p5684
aVsf city
p5685
aVcab drivers
p5686
aVcar selling]
p5687
aVsf pipeline q4
p5688
aVpower grod map treasure island
p5689
aVmedical canibis
p5690
aVmove
p5691
aVeasements
p5692
aVtraffic light map
p5693
aVchildhood obesity
p5694
aV2016
p5695
aV2012
p5696
aVpython
p5697
aVsan francisco topographic map
p5698
aVstreet map block numbers
p5699
aV1 stockton
p5700
aVlength
p5701
aVcompaints
p5702
aVprivate foundation bay area
p5703
aVco-op
p5704
aVbergamo
p5705
aVcmetrics
p5706
aVblock party permits
p5707
aVtowzone
p5708
aVtraffoc
p5709
aVdemographics by neighborhood
p5710
aVpublic bathrooms
p5711
aV09/11/2015
p5712
aVactive contracts
p5713
aVadopted budget
p5714
aVapn square feet
p5715
aVbicycle ramp
p5716
aVzoning district maps
p5717
aVbicicle
p5718
aVparking cesar chavez
p5719
aVincome census
p5720
aVcrime rate 1984
p5721
aVminh van nguyen, sunlight
p5722
aVschool api
p5723
aVcampus
p5724
aVbart district
p5725
aVroads gis
p5726
aVbtu
p5727
aVbusiness latitutde
p5728
aVsfpd budget
p5729
aVshapefile sf polygon
p5730
aVskateboarding
p5731
aVcigarette abatement fee
p5732
aVage of housing
p5733
aVurban parks
p5734
aVarrests, 2012
p5735
aVarrests, 2013
p5736
aVcity employeees
p5737
aVbristol
p5738
aVca
p5739
aValzeheimers
p5740
aVballot measures
p5741
aVunion street
p5742
aVmoving violations
p5743
aVcommuter
p5744
aVaverage salery
p5745
aVparking meter operating schedule
p5746
aVpublic school point 2000
p5747
aVall roads shapefile
p5748
aVheating
p5749
aVlust
p5750
aVtruck traffic
p5751
aVbioswale
p5752
aVadsl
p5753
aVaverage daily travel
p5754
aVestuaries
p5755
aVstreet sweeping permit
p5756
aVstreet shp
p5757
aVcrome
p5758
aV2660 san bruno avenue, san francisco, ca. 94134
p5759
aVrooms
p5760
aVcommunity planning areas
p5761
aVschool population
p5762
aVcensus tracts shapefile
p5763
aVbudget operating
p5764
aVamerican college of traditional chinese medicine
p5765
aVunreinforced masonry building
p5766
aVfilm commission
p5767
aValcohol arrest
p5768
aVchicago crime data
p5769
aVbuilding permits 94127
p5770
aVurban bird
p5771
aVargonaut hotel
p5772
aVresidential mobility
p5773
aVcoast shapefile
p5774
aVbalkan
p5775
aV"karen lum"
p5776
aVccfco
p5777
aVaerail photos
p5778
aVprecipitation records
p5779
aVgis streets
p5780
aVassest
p5781
aVthe commissary
p5782
aVcampaign finance 460a
p5783
aVurban density
p5784
aVroad lanes
p5785
aVcity base map
p5786
aVasthma hospital
p5787
aVrent 2000
p5788
aVaquilina family trust
p5789
aVbike boulevard
p5790
aVtides
p5791
aVchicago crime ddata
p5792
aVchild care costs
p5793
aVurban mixed use
p5794
aVcommuter tow
p5795
aVsteveloe
p5796
aVneighbours
p5797
aVurban curry
p5798
aVretail locations
p5799
aVsystem inventory
p5800
aVaverage rentcost
p5801
aVcencus tracts
p5802
aVpoppy
p5803
aVcmp
p5804
aVcalifornia population
p5805
aVcentral freeway
p5806
aVminutes spent biking
p5807
aVstreet evaluations
p5808
aVwater lines
p5809
aVdrainages
p5810
aVsettlement
p5811
aValternate street names
p5812
aVbi
p5813
aVcar vandalism sf
p5814
aVbangkok
p5815
aVbay area county shape file
p5816
aValameda streets
p5817
aVbuilding owners
p5818
aVcomb
p5819
aVcontinious data
p5820
aVregister business
p5821
aVacademic performance index
p5822
aVwater area
p5823
aVbike ramp
p5824
aVboats
p5825
aVfaq
p5826
aVheatmap
p5827
aVstreet standards
p5828
aVman holes
p5829
aVbuiness
p5830
aVincome census tract 140
p5831
aVcolter hammer
p5832
aV405 howard st.
p5833
aVbase map ai
p5834
aV"public library"
p5835
aVcitigroup
p5836
aVshoteline
p5837
aVcampaign finance "form 410"
p5838
aVhighway shapefile
p5839
aVexceptions table
p5840
aVnorth beach parking
p5841
aVcentron
p5842
aVmap: crime incidents  previous three months
p5843
aVbanh
p5844
aVzero waste
p5845
aVneigborhoods
p5846
aVpolice report
p5847
aVcommunity challage
p5848
aVsustainable business
p5849
aVbuilt far
p5850
aVthe anthem companies inc
p5851
aVcrime point shapefile
p5852
aVplaces of entertainment
p5853
aV7980
p5854
aVelevaton
p5855
aV20200480
p5856
aVben walsh
p5857
aVbicycle miles
p5858
aVthe lincoln national life insurance company
p5859
aVsecured_roll
p5860
aVarcgis online
p5861
aVingleside presbyterian church
p5862
aVcommunity challenge grant
p5863
aVbuilding footprints oakland
p5864
aVbasic orientation
p5865
aVi640530-02
p5866
aVcommunity resiliency indicators
p5867
aVassessed
p5868
aVcity agency
p5869
aVannual energy benchmarking
p5870
aVgermany
p5871
aVpopulation data
p5872
aVdiscretionary
p5873
aVgis map
p5874
aVsros
p5875
aVbusiness permitted
p5876
aVchicago crime
p5877
aVassualt
p5878
aVbikeway network points
p5879
aVhousing data hub
p5880
aVcity buildings facilities
p5881
aVnumber of new businesses
p5882
aVcommunity services
p5883
aVbathimytrey
p5884
aVschools and universities
p5885
aVbay area city
p5886
aVaddresses for businesses
p5887
aVaccount number
p5888
aVcensus blcok
p5889
aVarterial streets of san francisco
p5890
aVbuilding year
p5891
aVsan-francisco-parking-meters-map-and-dataset
p5892
aVais
p5893
aVbusiness area
p5894
aVblock face
p5895
aVsf pd plots
p5896
aVambulance incident
p5897
aVyoga studios
p5898
aVbusiness maps
p5899
aVtow away zones
p5900
aVhispanic
p5901
aVbiome
p5902
aVacident
p5903
aV"lines"
p5904
aVgeography and climate
p5905
aVcitysourced
p5906
aVyouth program
p5907
aVgraduates
p5908
aVbiuldings heights
p5909
aVthe mission
p5910
aVcity vendors
p5911
aVanime
p5912
aVneiman marcus
p5913
aV149 julian
p5914
aVbus accident
p5915
aVarborist licenses
p5916
aVsan francisco income
p5917
aVantonin scalia
p5918
aVschool sat
p5919
aVcentral market cbd
p5920
aV(415) 824-1602
p5921
aVsan francisco sea level
p5922
aVcrt international
p5923
aVcomputer stores
p5924
aVkillings
p5925
aVincome by zipcode
p5926
aVsf addresses
p5927
aVvegan
p5928
aVcommunity services directory san francisco county
p5929
aVaddresses, race data. languages spoken
p5930
aVrespiratory
p5931
aVsustainable communities index
p5932
aVhouse market
p5933
aVplat map
p5934
aVsuess
p5935
aVairport seucity
p5936
aVami 1990
p5937
aVsf shapefile
p5938
aVbike counting
p5939
aVassessor maps
p5940
aVweb_eoc_data_demo
p5941
aVtax return form
p5942
aVurban solutions
p5943
aVblock center line
p5944
aVsocial services \u005c
p5945
aVtreasure island event
p5946
aVenergy and environment
p5947
aVnew liberation presbyterian church
p5948
aVbuildign footprint
p5949
aVcantonary
p5950
aVfbn
p5951
aVstreetcar
p5952
aVgoogle life sciences
p5953
aVzn09
p5954
aVcommissiones
p5955
aVmeaning of cnn
p5956
aVfurniture buddies
p5957
aVdistrict populations
p5958
aV2016 feb 26 arrests in bay view
p5959
aVall address
p5960
aVbuilding build date
p5961
aVhit and run
p5962
aVwater conservation
p5963
aV\u005ccleaning
p5964
aVchildren youth and their families
p5965
aVaddres
p5966
aVpopulation 2010
p5967
aVcity kerb
p5968
aVunited kingdom
p5969
aV177 stillman
p5970
aVkerb
p5971
aVbicycle shp
p5972
aVcivic center public art
p5973
aVhill shade
p5974
aVpublic transportation stops
p5975
aVutility pole
p5976
aVcensus tract clipped
p5977
aVcategorical exclusion
p5978
aVzoning 2015
p5979
aVcarl
p5980
aV"citywide performance measurement"
p5981
aVada compliance
p5982
aVsf shorelines and islands
p5983
aVcensus 2010: census
p5984
aVstationary pollution
p5985
aVbikecounts
p5986
aVpermit event
p5987
aVcfs productions
p5988
aVditrict attorney
p5989
aVsound complaints
p5990
aVcity owned lands
p5991
aVbuildings downtown
p5992
aVsquare feet of space
p5993
aVnew development projects
p5994
aVbikeparking
p5995
aVunit inventory
p5996
aValchol
p5997
aVhurley
p5998
aVbicycle fatalaties
p5999
aVaps database
p6000
aVantioquia
p6001
aVecosystems
p6002
aVmashable
p6003
aVcomplaints planning
p6004
aVclose business
p6005
aVdpt shapefile
p6006
aVbay area boundaries
p6007
aVnouveau bakery llc
p6008
aVinterstate
p6009
aVcab west
p6010
aVasessor roll
p6011
aVempty lots
p6012
aVbike cages
p6013
aVblocks streets
p6014
aVbuidling height
p6015
aVbusines license
p6016
aVbuilding height limits
p6017
aVarticle
p6018
aVjessie castle
p6019
aVagency purchasing
p6020
aVhelipad
p6021
aValmarida
p6022
aVwalkability
p6023
aVbusiness 2012
p6024
aVapplebees
p6025
aVyouth homeless
p6026
aVartisan food
p6027
aVboard of supervisors gis shapefile
p6028
aVfire calls for service
p6029
aVb2j2-ahrz
p6030
aVconceaaled weapons permits
p6031
aVbicycle shop
p6032
aVbrooklyn pizza
p6033
aVaffordable housing sites
p6034
aValameda district
p6035
aVbuilding energy class
p6036
aVvc
p6037
aVoff-street commercial
p6038
aVbay area roads
p6039
aVspeed survey
p6040
aVbigdata
p6041
aV0417848
p6042
aVbar code
p6043
aVcommodity term contracts
p6044
aVassessment 15
p6045
aVstreet sweeper schedule and route
p6046
aVinclusion
p6047
aVtaxable sales
p6048
aVinsolation
p6049
aVsan francisco landmarks
p6050
aVlos
p6051
aVbay size
p6052
aVbreeze labs inc
p6053
aVcommercial owner
p6054
aVafordable
p6055
aVbrendan yu
p6056
aVareas 1000 feet school
p6057
aVantenna
p6058
aVstorage
p6059
aVdistricts supervisor
p6060
aVcommunity housing
p6061
aVregistry
p6062
aVwater system
p6063
aVavl gps
p6064
aVsan_francisco economy
p6065
aVhill
p6066
aVhouse of representatives
p6067
aVcollison
p6068
aVbusine
p6069
aVcity building
p6070
aVjean ng
p6071
aVvet
p6072
aVkiml
p6073
aVbulding foot print
p6074
aVtraffic analysis zones
p6075
aVcultural equity
p6076
aVheroin
p6077
aVcampaign finance dashboard 2015
p6078
aVcall phone
p6079
aVcorporate hr roll
p6080
aVdermatology dataset
p6081
aValgae
p6082
aVbuilding footpprint
p6083
aVcommittee contributions
p6084
aVelevation dem
p6085
aVassessor records
p6086
aVnoise data
p6087
aVfactories
p6088
aVfamous people
p6089
aV'//
p6090
aVoffender
p6091
aVbudgets
p6092
aVaccident at work
p6093
aVcalifornia pacific medical center
p6094
aVcar burglaries
p6095
aVaffordability gap
p6096
aVbay area zip code boundaries
p6097
aVcontinuation sheet
p6098
aVadult literacy
p6099
aVcensus 2000 block (no water)
p6100
aVmcdonalds
p6101
aVtraffic fatalities mapping
p6102
aVpresidio middle school
p6103
aVcentral station crime
p6104
aVfines
p6105
aVcocktail recepis
p6106
aVannual allowable
p6107
aVprenatal
p6108
aVbase,ap
p6109
aV460 forms schedule a 2015
p6110
aVaccountant intern
p6111
aVbiulding height
p6112
aVsan francisco freeways
p6113
aVelder
p6114
aVbay area coastline
p6115
aVbuildings year of construction
p6116
aVzoning gis
p6117
aVciti bike
p6118
aVasr
p6119
aVast
p6120
aVtimeline
p6121
aVeverlane
p6122
aVsanta monica
p6123
aVlanduse map[
p6124
aVairport passenger data
p6125
aVbenefits applications
p6126
aValcohol businesses
p6127
aVbuilding stock
p6128
aVwashington dc
p6129
aVcrime in the mission district
p6130
aVdtm
p6131
aVrestani way
p6132
aVndvi
p6133
aVtourisms
p6134
aVsfo tow zone
p6135
aVbottled water
p6136
aVzip code to supervisor lookup with contact information
p6137
aVcar thefts
p6138
aVco2 shapefile
p6139
aVtree cove
p6140
aVfreemobiledata
p6141
aVload bearing capacity
p6142
aVbay area trails
p6143
aVcity ownedfacilities
p6144
aVsfpd incidents arson
p6145
aVannual supplemental ordinance
p6146
aVresidential housing density
p6147
aVwoodside
p6148
aVcrime laborabory
p6149
aVcolorado springs
p6150
aVsfpd_incident_all_csv
p6151
aVboundary san francisco
p6152
aVbusiness - cafes
p6153
aVcrash injury
p6154
aVtrappfoto
p6155
aVbuilding plans
p6156
aVmedical canibus
p6157
aVbomber jacket
p6158
aVgolf club
p6159
aVminorities
p6160
aVhuman services agency
p6161
aVcommical building
p6162
aVbay area census tract
p6163
aVopen graffiti
p6164
aV440 potrero
p6165
aVcryme
p6166
aVbicycle incidents
p6167
aVsan francisco incomes
p6168
aVshort term residential
p6169
aVjohn's grill
p6170
aVcensus tract no water
p6171
aVstreet feature
p6172
aVconflict
p6173
aVstudio candelabra
p6174
aVfiscal
p6175
aVbrussels
p6176
aVevicitions
p6177
aVcity owned land
p6178
aVparkign fines
p6179
aVbuilding lines
p6180
aVarmin
p6181
aVcar ownship
p6182
aVtemporary tow zones
p6183
aVradio system
p6184
aVdowntown buildings
p6185
aV"harris"
p6186
aVcancer diagnoses
p6187
aVbirthplace
p6188
aVsffd 11/24/2015
p6189
aVsfmta citations
p6190
aVyes on prop f
p6191
aVcliffs variety
p6192
aVcountour lines cad
p6193
aVmuni'
p6194
aVbangladesh
p6195
aVenrollment 2014
p6196
aVfood stamps
p6197
aVproperty lot
p6198
aValcohal
p6199
aVhome sales prices
p6200
aVvacancies
p6201
aVtech bus stops
p6202
aVelectrical
p6203
aVaccident reports
p6204
aVkansas
p6205
aVrecord retention
p6206
aVint000000ussrvs
p6207
aVweblogs
p6208
aVbuying habits
p6209
aVbronwen
p6210
aVprofessional developemtn
p6211
aVfire departments
p6212
aVfire response
p6213
aVbirdsm
p6214
aVcycleways
p6215
aVwater units
p6216
aVfare
p6217
aVwic
p6218
aVbrothers auto
p6219
aVsf border
p6220
aVresidences
p6221
aVpark inventory'
p6222
aVutility excavation moratorium streets
p6223
aVbuilding footprint 2011
p6224
aVhouse cost
p6225
aVlot history
p6226
aVfinn's cafe
p6227
aVnetwork shapefile
p6228
aVcollission
p6229
aVtour guides
p6230
aVunderpass of masonic avenue
p6231
aVpuerto rico
p6232
aVbike route number
p6233
aVaaron peskin payment received
p6234
aV[socrata] 311test
p6235
aVparcels zoning
p6236
aVmelra ct
p6237
aVjoseph wehrer
p6238
aVelevation raster
p6239
aVbus terminal
p6240
aVcommercial parcels
p6241
aVcharities'
p6242
aVblock groups 2010
p6243
aVcity right of way
p6244
aVcollege student
p6245
aVcar selling
p6246
aVcollision bike
p6247
aVage of property owners
p6248
aVjames peavey
p6249
aVgraffi
p6250
aVshoreline and islands
p6251
aVadrian aguielra
p6252
aVparking enforcement
p6253
aVsubdivisions
p6254
aVwiseman group
p6255
aVdetector
p6256
aVbicycle parking (public)
p6257
aVbuilidings
p6258
aVbook store
p6259
aVbuildings locations
p6260
aVcapitol corridor stations
p6261
aVdorothy tyson
p6262
aVsan francisco police stations
p6263
aVuptown national register historic district
p6264
aVwater fountain
p6265
aVafter school programs
p6266
aVassesor block
p6267
aVpd disticts
p6268
aVkenneth malvar
p6269
aVstclines_freeways
p6270
aVcensus income family
p6271
aVleases
p6272
aVcivil marriage
p6273
aVcity college board
p6274
aVaverage household income
p6275
aVofficials
p6276
aVteng
p6277
aV1 rincon
p6278
aVcurb cuts
p6279
aVroutes transit
p6280
aVbus drivers
p6281
aVbuilding characteristics
p6282
aVbuy bust
p6283
aVpopulation forecast
p6284
aVpopulation forecasr
p6285
aVbudiman
p6286
aVvolunteerism
p6287
aVfield
p6288
aVarking
p6289
aVred sea market
p6290
aVcitern
p6291
aVcli,ate
p6292
aVsan francisco commercial
p6293
aVactnet
p6294
aVcode enforcement violations
p6295
aVsan francisco street parking data
p6296
aVbike park
p6297
aVannual energy consumption
p6298
aV460 schedule g
p6299
aVstreets of sf
p6300
aVcab drivers association
p6301
aVmike garcia
p6302
aVbike corral
p6303
aVlost
p6304
aVrammp
p6305
aVsan francisco bay outline
p6306
aVduden
p6307
aVpayments
p6308
aV501 franconia
p6309
aVyearbuilt
p6310
aVautism therapy
p6311
aVbuliding capacity
p6312
aVasdf
p6313
aVcoates
p6314
aVsoftware catalog
p6315
aVopen space map
p6316
aVbiuldings height
p6317
aVwashington
p6318
aVcell towers
p6319
aVhr
p6320
aVbusstops
p6321
aV94536
p6322
aVitil
p6323
aVbicycle collision data
p6324
aVmechanics
p6325
aVadjusted minimum income
p6326
aV158 maynard
p6327
aVanthem permit
p6328
aVboarding school
p6329
aVcanada
p6330
aVwaste management
p6331
aVwestfield
p6332
aVchicago zip code shapefiles
p6333
aVcertified payroll record
p6334
aVzip codes san francisco
p6335
aVbart map
p6336
aVsmart meter
p6337
aVbuilding footprints shape
p6338
aVpipeline q2 2015
p6339
aVbike lane right-of-way
p6340
aVcnr masonic
p6341
aVrescue
p6342
aVkim reynolds
p6343
aVbus line gis
p6344
aVclothes
p6345
aVlandlords
p6346
aVwork in san francisco
p6347
aVcolleges in san fran
p6348
aVprisons
p6349
aVcensus, no water
p6350
aVwatermark press
p6351
aVregistered voters
p6352
aVserco
p6353
aVbuilding shapefiles
p6354
aVcity wide analyst network
p6355
aVlandscape
p6356
aVleaks
p6357
aVcondo conversions
p6358
aVtype
p6359
aVboat launch
p6360
aVassociation
p6361
aVbenefit district
p6362
aVbupsiness search
p6363
aVmolnar
p6364
aVtammarah l. nikeh death certificate
p6365
aVtaxable value by district
p6366
aVamerican cleaners
p6367
aVinhabitant
p6368
aVall parcels
p6369
aVrent control regulations
p6370
aVform t10
p6371
aVcensus vehicle
p6372
aVchart
p6373
aVtoby kanzawa
p6374
aVtenderlion district
p6375
aVhouseholds with children
p6376
aVcorporations
p6377
aVchristopher birch
p6378
aVkinoka
p6379
aVauto return
p6380
aVassaults
p6381
aVau pair foundation
p6382
aVaddressid
p6383
aVhealth services
p6384
aVed lee contributions
p6385
aVconcussion
p6386
aVicebreaker health
p6387
aVbusiness registration 32 richland avenue
p6388
aVdistance
p6389
aVsolomon
p6390
aVpublic works requests
p6391
aVcity of san francisco shapefile
p6392
aVskate parks
p6393
aVchurn
p6394
aVchess
p6395
aVyanscape
p6396
aVbaby names
p6397
aVbeach quality
p6398
aVbuss stops
p6399
aVblue greenway
p6400
aVasian art museum
p6401
aVspeeding tickets
p6402
aVbreak in
p6403
aVhuman crap
p6404
aVassessor map
p6405
aV2000 population density
p6406
aVanimal abuse
p6407
aVbart gis
p6408
aVbay ecology
p6409
aVhigh injury corridor
p6410
aVbrazil
p6411
aVtektronix, inc.
p6412
aVcity hall map
p6413
aVsan francisco topography
p6414
aVambulanze
p6415
aVelations
p6416
aV"traffic"
p6417
aVaugust 2015
p6418
aVbicycle permit
p6419
aVbuilding footprintds
p6420
aVshort-term rental
p6421
aVusps
p6422
aVcensus block names
p6423
aVsfmta parking meters
p6424
aVabandoned building
p6425
aVcar accident in sf
p6426
aVwalking score
p6427
aVbusiness licenses owners
p6428
aVcity park
p6429
aVbusiness class code
p6430
aVtax credits
p6431
aVcommnercial parcels
p6432
aVpublic defecation
p6433
aVeconomy and community
p6434
aVcell site
p6435
aVgeneral fund
p6436
aVclementina
p6437
aVdeaf
p6438
aVintern
p6439
aVtbl_reis_lotdetail
p6440
aVbart statios
p6441
aVnotification
p6442
aVconsumer price index
p6443
aVjda software
p6444
aVbasic development project pipeline map 2012 q1
p6445
aVfood inspectin
p6446
aVislands
p6447
aVbay-area-zip-code-areas-
p6448
aVarea plan
p6449
aVsustainable city index
p6450
aVcoastal commission
p6451
aVchildren environmental
p6452
aVform
p6453
aVapi street sweeping
p6454
aValex lebel
p6455
aVbenchmarks
p6456
aVbuildi
p6457
aVcity auto supply
p6458
aVsan francisco weather
p6459
aVage of buildings
p6460
aVair qualiy
p6461
aVsignage
p6462
aVshot
p6463
aVdevelopers for housing in san francisco
p6464
aVclipper cove beach
p6465
aVnorth beach sf
p6466
aVgrafitti shapefile
p6467
aVairfare
p6468
aVbike locker shapefile
p6469
aV1gagf ttx
p6470
aVsan francisco shore
p6471
aVcity gis basemap
p6472
aVactive registered businesses
p6473
aVrental market
p6474
aVwells fargo
p6475
aVlandslides
p6476
aVrace population
p6477
aVcompany portfolio
p6478
aVoffstreet parking
p6479
aVsb272
p6480
aVairfields
p6481
aVbox
p6482
aVsfo passenger
p6483
aVtu lan
p6484
aVcime report
p6485
aVcapital planning
p6486
aVteenage
p6487
aVplots
p6488
aVpassenger loading
p6489
aVvisit
p6490
aVcrime sunset
p6491
aVbuildings 3d
p6492
aVcensus blocks 2000 tracts (no water)
p6493
aVchild support services
p6494
aVapa family support services
p6495
aVvacancy rate
p6496
aVcensus records
p6497
aVwok shop cafe
p6498
aVmuni data
p6499
aV140273353
p6500
aVparce
p6501
aV311 dpw complaints
p6502
aVdrug usage
p6503
aVelectric car
p6504
aVday time population density
p6505
aVaccessory
p6506
aVfarmer's market
p6507
aVcomminity events
p6508
aVtransit data
p6509
aVtopographic maps
p6510
aVshake
p6511
aVcommunity benefits
p6512
aVbedbug
p6513
aVmain
p6514
aVbudget, 2003
p6515
aVaccomodation
p6516
aV"curtis dunn"
p6517
aVgeotechnical
p6518
aVrock
p6519
aVxls
p6520
aVbusiess
p6521
aVambulence call for service
p6522
aVrestaurant reviews
p6523
aVlightpost
p6524
aVtennis courts
p6525
aVburlingame
p6526
aVsf.data.gov
p6527
aVcriminal cases
p6528
aVcrime south of market
p6529
aVstore location
p6530
aVassessors roll datq
p6531
aVhigh crime areas
p6532
aVwater use intensity
p6533
aVadeli
p6534
aValbedo
p6535
aVland records
p6536
aVpolice department district
p6537
aVhotspot
p6538
aVutility locations
p6539
aVannual appropriation
p6540
aVhistric
p6541
aVworld cup
p6542
aValameda census shapefile
p6543
aV"public housing"
p6544
aVcapital improvement passthrough petitions
p6545
aVcorner
p6546
aV560 brannan
p6547
aVtreasure
p6548
aVrow count 1000000
p6549
aVtempurature
p6550
aVcommunity rsiliency
p6551
aVferry shapefile
p6552
aVbuidling inspection
p6553
aVy8fp-fbf5
p6554
aVassesments
p6555
aVapplications per school
p6556
aVparking costs
p6557
aVura shapefiles
p6558
aVarea median income 1990
p6559
aVbuildings on corner
p6560
aVfunctional classification
p6561
aVconstruction housing 2015
p6562
aVcdc san francisco llc
p6563
aVlots units
p6564
aVbike riding
p6565
aVbay area zip
p6566
aVmta bike routes
p6567
aVsf curb
p6568
aVsao paulo
p6569
aVbuildings gis
p6570
aVcinema, museum
p6571
aVbikeroad
p6572
aVborders
p6573
aVarrest data
p6574
aVrenter occupied
p6575
aVmotorcycle parking data
p6576
aVbicycle trails
p6577
aVdangerous
p6578
aVfinance report
p6579
aVtsing's
p6580
aVcity of san francisco boundary
p6581
aVbart shape file
p6582
aVbeyond education
p6583
aVstreets\u005c
p6584
aVcoastlibe
p6585
aVpac
p6586
aVclimbing
p6587
aVbreak
p6588
aVmacri
p6589
aVovercrowding
p6590
aVassessement
p6591
aVaddress range
p6592
aVstreet speed limit
p6593
aVtraffi
p6594
aV2828 sloat
p6595
aVreentry
p6596
aVo'brien mechanical
p6597
aVpopulation 20112
p6598
aVpersonal income
p6599
aVbuidling
p6600
aV152050491
p6601
aVaddress parcel
p6602
aVproperty info
p6603
aVtree data
p6604
aVcensus 2013 shapefile
p6605
aVbike projects
p6606
aVaverage wage
p6607
aVarmando luna
p6608
aVneighborhood by zip code
p6609
aVcare facilities
p6610
aVdepth
p6611
aVrace demographics
p6612
aVby use food establishments
p6613
aVbank statement
p6614
aVoral
p6615
aVhousing units by parcel
p6616
aVallergy
p6617
aVadministrative code
p6618
aVmontain ranges shapefile
p6619
aVgarbage collection
p6620
aVcapital improvement plan
p6621
aVmedicine
p6622
aVsf neighborhood crimes
p6623
aVcrime 2003
p6624
aVsaint louis
p6625
aVattendance areas
p6626
aVfy2015 fte
p6627
aVmovement
p6628
aVbakeries
p6629
aVbuses
p6630
aVafrica
p6631
aVsf county
p6632
aVasth
p6633
aVcity grid
p6634
aVchild protective services
p6635
aVneighborhood census
p6636
aVapproved
p6637
aVvalparaiso
p6638
aVdistricts shapefile
p6639
aVslope tin
p6640
aVscott wiener
p6641
aVgross product
p6642
aVbusiness closure
p6643
aVbusiness_id
p6644
aVwave
p6645
aV2016 budget
p6646
aVairport passenger
p6647
aVbronwen lemmon
p6648
aVincidents 2014
p6649
aVprecinct shapefile
p6650
aVarial
p6651
aVpests
p6652
aVmission creek
p6653
aVbike rental
p6654
aVsf find
p6655
aVsurvey maps
p6656
aVportland
p6657
aVflower
p6658
aVprojected
p6659
aVthird-party
p6660
aVsan francisco water power sewer
p6661
aV1021981
p6662
aVtransportation analysis zones
p6663
aVbyarea_bridges
p6664
aV477774
p6665
aVaccess to healthcare
p6666
aVblock gropu
p6667
aVparc
p6668
aVurban bird refuge
p6669
aVdeath rate
p6670
aVresidential addresses
p6671
aVsf facs
p6672
aVschool data
p6673
aVbusiness history
p6674
aVprentis
p6675
aV08-192
p6676
aVroad name
p6677
aV.tsv
p6678
aVballkan
p6679
aVpopulation education
p6680
aVillegal dumping 2012
p6681
aVboulder
p6682
aVyouth and senior populations
p6683
aVpest control
p6684
aVbuddha lounge
p6685
aVcurrent employee names, salaries, and position titles
p6686
aVcng vehicles
p6687
aVblue curbs
p6688
aVccsf boundary
p6689
aVscholar map
p6690
aV"air quality"
p6691
aVpayroll tax exclusion
p6692
aVbeautification
p6693
aVcampaign finance 460 a
p6694
aVbuilding years
p6695
aVbayarea_brodges
p6696
aVpedestian accident reports
p6697
aVcarbon shapefile
p6698
aVbugcrowd
p6699
aVbaltimore
p6700
aVzeta
p6701
aVpopulation in san francisco
p6702
aVtgif
p6703
aVzoning_districts
p6704
aVmaps muni
p6705
aVparks in san franciscp
p6706
aVnoise violation
p6707
aVbay area free ways
p6708
aVprice\u005c
p6709
aVfun
p6710
aVortophoto
p6711
aVportugal
p6712
aVbusch
p6713
aVroad construction
p6714
aVbutcher
p6715
aVnight club
p6716
aVrestricted street
p6717
aVshapefile nike
p6718
aVblue bottle coffee
p6719
aVbond disclosure
p6720
aVbox office
p6721
aVeconomic report
p6722
aVadministrative
p6723
aVbin
p6724
aVdbi electrical permits
p6725
aVasian resident
p6726
aVsconnect
p6727
aVsidewalk defects
p6728
aVcity boudries
p6729
aVdol ho
p6730
aVbus and bart lines
p6731
aVtree census
p6732
aVpee
p6733
aVchinese population
p6734
aVdxf
p6735
aVzonign
p6736
aVbayarea
p6737
aVbeyondsoft
p6738
aVsmartnews international
p6739
aVtenderloin drug
p6740
aVbuilding number of units shapefile
p6741
aVcollision data
p6742
aVfamer market
p6743
aVsingle
p6744
aVleasing house
p6745
aVabbrev
p6746
aVcommercial zoning
p6747
aVbicycle shower
p6748
aVolse
p6749
aVtai chi
p6750
aVbulkhead
p6751
aVgroceries
p6752
aVwireless provider
p6753
aVvalparaso
p6754
aVsb 272
p6755
aVcatchments
p6756
aVbay conservation
p6757
aVankara
p6758
aVavalos
p6759
aVclement
p6760
aVbureau of street use
p6761
aVangel island
p6762
aVbike tourism
p6763
aVbuildings shp
p6764
aVcommical biulding
p6765
aVhousing pipeline q4
p6766
aVpayday
p6767
aVcordova
p6768
aVfracture
p6769
aVsan francisco city streets
p6770
aVaverage housing cost
p6771
aVconstruction buildres
p6772
aVthailand
p6773
aVserver log
p6774
aVbusiness registaion renewal
p6775
aVapartment rent
p6776
aVcommune
p6777
aVconstruction hours
p6778
aVcensus no water and sf shoreshapefile
p6779
aVcompaign contributions
p6780
aVsfmta route
p6781
aVlist of all food establishments in san francisco
p6782
aVrequests for informaiton
p6783
aVnative
p6784
aVbuilding class
p6785
aVsf shape file
p6786
aVdistrict 9
p6787
aVneighborhood kml
p6788
aVbins
p6789
aVpublic utilities commision
p6790
aVtuberculosis
p6791
aVcentral clearinghouse
p6792
aVid:mm8z-q5wc
p6793
aVmarsh
p6794
aVbusinss
p6795
aVdat
p6796
aVserpentine
p6797
aVsan francisco business licenses
p6798
aVsfpd calls
p6799
aVbiulding
p6800
aVsteal
p6801
aVdistrict boundaries arcgis
p6802
aVuptown tenderloin national register historic district
p6803
aVrestutants
p6804
aVj903334-00
p6805
aV311 all
p6806
aVchristopher webster
p6807
aVstreet parkin
p6808
aVbig chief express
p6809
aVrestaraunts
p6810
aV179 alhambra
p6811
aVliqour
p6812
aVsfpd incidents 2014
p6813
aVcurves
p6814
aVrichmond district
p6815
aVemployee count by department and union
p6816
aVaccident death
p6817
aVcomputer security
p6818
aVfour rivers
p6819
aVphotography
p6820
aVcesus
p6821
aVpatients with diabetes
p6822
aVbelow market rate property
p6823
aVwhole foods
p6824
aVmotorcycle meter parking
p6825
aVservice connect
p6826
aVbrophy painting
p6827
aVacademy of art
p6828
aVconsumer affairs
p6829
aVdeliver
p6830
aVmode shar
p6831
aVtax collector
p6832
aVcopntour
p6833
aVcivil service
p6834
aVform 410
p6835
aVclean city
p6836
aVlower polk
p6837
aVland-use
p6838
aVebook sales droped
p6839
aVresidential hotel
p6840
aVwilsey
p6841
aVdata lens
p6842
aVbuisness license
p6843
aVrecreation facilities
p6844
aVbicycle bike cycle
p6845
aVbicycle or bike or cycle
p6846
aVcity divisions
p6847
aVbudget data
p6848
aVcommunications networks
p6849
aVfloor plans
p6850
aVamenity
p6851
aVcensus 2010 geodatabase
p6852
aVcampaign finance fppc form 460
p6853
aVadministrative services
p6854
aVjuvenile homicide
p6855
aVbasemaps
p6856
aVpubli
p6857
aVassessing
p6858
aVattendance boundary
p6859
aVcity option
p6860
aVbi lingual pay
p6861
aVsan francisco facilties
p6862
aVyour peerspace listing information
p6863
aVfire area
p6864
aVcensus sf3
p6865
aVbus schedule
p6866
aVcensus 2010 san
p6867
aVparks and destinations
p6868
aV2015 neighborhood profiles
p6869
aVsoft
p6870
aVcoahes
p6871
aVitalian
p6872
aV1002155
p6873
aVbull dog
p6874
aVactive building permits
p6875
aVballot measure mapping
p6876
aVnew buildings
p6877
aVstreet curbs arcgis
p6878
aVbills
p6879
aVconway
p6880
aVbrasilv
p6881
aVbusiness registration number
p6882
aVphenoh
p6883
aVwage theft prevention
p6884
aVus census 2010 demographic profile data, sf county
p6885
aVmobile phone
p6886
aVstreet shapefiles
p6887
aVdpw street evaluation
p6888
aVzula jones
p6889
aVbusiness lookup
p6890
aVstrategic plan
p6891
aVwalk to work
p6892
aVbasketbal
p6893
aVsfmta routes and stops
p6894
aVminkowski group 98 battery st suite 405
p6895
aVcookbook
p6896
aVbioregional habitat restoration
p6897
aVcases planning
p6898
aVtweet
p6899
aVcampaign financ
p6900
aVanimal shelters
p6901
aVneighborhoods gis
p6902
aVberkeley shape files
p6903
aVbay area orthophotos
p6904
aVcampaign schedule a
p6905
aVbusiness rent
p6906
aVbuilding sfpuc
p6907
aVrasier
p6908
aVbureau of street us
p6909
aVmason hospitality
p6910
aVabandoned vehcihles
p6911
aVcaer
p6912
aV311 explorer
p6913
aVt2bt-t49r
p6914
aVethnicitiy
p6915
aVfriendly market
p6916
aVcampaign filing
p6917
aVasses
p6918
aVsupplemental
p6919
aVrecreaction
p6920
aVgolden gate larkin
p6921
aVparking time limits
p6922
aVpavement condition index
p6923
aVassessor data
p6924
aVfood shop
p6925
aVfrenquency
p6926
aVoffice rent
p6927
aVcommunity resilience
p6928
aVzynet
p6929
aVq1 2014
p6930
aVbacon, eggs
p6931
aVapn parcels
p6932
aVneedleman
p6933
aVvideo
p6934
aVadpics
p6935
aVpolluters
p6936
aVbuilding units shapefile
p6937
aVbusiness zoning shapefile
p6938
aVcrime bureau
p6939
aVstreet speed
p6940
aVcity-owned properties
p6941
aVbehast
p6942
aVdriving
p6943
aVbrid refuge
p6944
aVarts culture and recreation
p6945
aVbartshape file
p6946
aVhome care providers
p6947
aVgeodatabase
p6948
aVcensus tract 2010
p6949
aVaaron peskin summary totals 2015
p6950
aVclasses
p6951
aVbaby name
p6952
aVtownsend
p6953
aVminard capital llc
p6954
aVaaron peskin campaign finance summary totals 2015
p6955
aVsat scores
p6956
aVrider
p6957
aVbsm
p6958
aVcandlestick
p6959
aVbay area map
p6960
aVcancuse
p6961
aVpopulaion
p6962
aVstreet cleaning map
p6963
aVyangyang
p6964
aVcensus social
p6965
aVpops
p6966
aVcity division boundaries
p6967
aVpaul dyogi
p6968
aVpublic transit shapefile
p6969
aVtwice
p6970
aVhuman-waste
p6971
aVsocial event
p6972
aVheneghan lee
p6973
aVcensus zipcode
p6974
aVvan ness and cedar alley
p6975
aVcatalogue
p6976
aVcontors
p6977
aVblocks water
p6978
aVcensus block group shapefile
p6979
aVhours
p6980
aV112 yukon
p6981
aVanthony
p6982
aVtrust
p6983
aVcar wash
p6984
aVrg
p6985
aVbees
p6986
aVfreight congestion
p6987
aVbuulding footprint
p6988
aVregistered businesses san francisco
p6989
aVage demographic
p6990
aVcivic center plaza
p6991
aVnatural disasters
p6992
aVcenter lines, street
p6993
aVestillore joel
p6994
aVcontrol point
p6995
aVspeeding ticket
p6996
aVagency
p6997
aVzynga
p6998
aVsewer pipelines
p6999
aVarcgis/rest/service
p7000
aVlibrary api
p7001
aValamo
p7002
aVassessors tax toll
p7003
aVbusines map
p7004
aVsfcline
p7005
aVbio diversity
p7006
aVbike collision data
p7007
aVlamps
p7008
aVplastic surgery
p7009
aVraphael pepi
p7010
aVauto registration
p7011
aVcaltrain station parking
p7012
aVanimal welfare
p7013
aVsan francisco hotels
p7014
aVsf shoreline and ilands
p7015
aVsan francisco county shapefile
p7016
aVpedestrian high injury cooridors
p7017
aVbart tracks
p7018
aVsite seeing
p7019
aVproperty transaction
p7020
aVbuilding footprints cad
p7021
aVcampaign consultants and employees
p7022
aVparking structures
p7023
aVcentral valley
p7024
aVfire shapefile
p7025
aVavl data
p7026
aVlandor
p7027
aVarea median income
p7028
aVlegal cases
p7029
aVbottle water
p7030
aVmassage permit
p7031
aVg8m3-pdis
p7032
aValcohol prevention
p7033
aVbike incidents
p7034
aVgender neutral bathrooms
p7035
aVbay area-general
p7036
aVtank hill
p7037
aVcensus by neighborhood
p7038
aVby neighborhood
p7039
aVbusiness operate
p7040
aVlevee
p7041
aVbike pathway
p7042
aVfire permit
p7043
aVuncashd
p7044
aVporn
p7045
aVsf pipeline q1 2014
p7046
aVblockparty permits
p7047
aVchildcare centers
p7048
aVboedekker park
p7049
aVbus ridership
p7050
aVsf film commission
p7051
aVneighborhood businesses
p7052
aVarterial shapefile
p7053
aVbuild out
p7054
aVvitria
p7055
aVstreet slope
p7056
aVbuilding materials
p7057
aVassessors report
p7058
aVbasel
p7059
aVspecual use district
p7060
aVflying
p7061
aV100 byxbee
p7062
aVbulk district
p7063
aVbody golden gate park
p7064
aVsanfranscisco.gdb
p7065
aVshapefile parks
p7066
aVcar traffic counts on van ness ave
p7067
aVauto burglary
p7068
aVart installations
p7069
aVcocktail
p7070
aVthe pastry cupboard
p7071
aVsffilms
p7072
aVtaxi cabs
p7073
aVmicroclimate
p7074
aVcensus tracts neighborhoods
p7075
aVbaker avenue asset management
p7076
aVstreet space permit
p7077
aVfarmer
p7078
aVban number
p7079
aVrecycled water
p7080
aVauthorized dealers
p7081
aVcredit risk
p7082
aVbuidling inspectin
p7083
aVmuni gis
p7084
aVregistered business locations - san francisco
p7085
aVbirt
p7086
aVabridged table
p7087
aVcommissioners
p7088
aV"harris corporation"
p7089
aVarray
p7090
aVengineer
p7091
aVcity budget
p7092
aVlocal business enterprise
p7093
aVbusiness revenues
p7094
aVplastic
p7095
aVlinda sue kocsis
p7096
aVsmfta
p7097
aVanimal shelter
p7098
aVbingbingjiang
p7099
aVdining
p7100
aVarclight
p7101
aVfire incidences
p7102
aVquality of life citations
p7103
aVfoot
p7104
aVcity assesor
p7105
aVbike collision
p7106
aV338 fillmore
p7107
aVblake rawdin
p7108
aVwalking and cycling travel times
p7109
aVdead body
p7110
aVcollege educatio
p7111
aVincome distribution
p7112
aVwhat would happen in a 5m water rise
p7113
aVsex crimes
p7114
aVhilary ronen
p7115
aVsf city district
p7116
aVall 311 data
p7117
aVbayarea outline
p7118
aVfind sf
p7119
aVpor
p7120
aVfood pantries
p7121
aVallcnnsinorder
p7122
aVterain
p7123
aVneighborhood boundries
p7124
aVfire incident
p7125
aVby private
p7126
aVvital statistics
p7127
aVtransit projects
p7128
aVcadastre
p7129
aVshops
p7130
aV2015 crime statistics
p7131
aVdemographic block level 2010
p7132
aVtaxi trip
p7133
aVbay city'
p7134
aVcityiwde performance measurement
p7135
aVcampaign contribution mayor
p7136
aVbike transit
p7137
aV_bridges
p7138
aVeucalyptus
p7139
aVvalle de nios
p7140
aVrenters
p7141
aVcommercial ordinance
p7142
aVcurb and ramp
p7143
aVbasemamp
p7144
aVparking on guerrero
p7145
aVtoxic site
p7146
aVaverage pay
p7147
aVmark hamilton
p7148
aVcng city vehicles
p7149
aVcall center
p7150
aVberkeley alumni
p7151
aVtitan insurance
p7152
aVmortality data
p7153
aVage building
p7154
aVfire prevention districts
p7155
aVbay area freeways
p7156
aVcalifornia urban water agencies
p7157
aVpublic health facilities
p7158
aVcall center data
p7159
aVcompany earnings
p7160
aVvienna street
p7161
aVhindu
p7162
aVvpr designs
p7163
aVaccounts
p7164
aVcore rope curriculum
p7165
aVcity contract
p7166
aVroad shape
p7167
aVcitywide performance report
p7168
aVpolitics
p7169
aV0468557
p7170
aVcommuter data
p7171
aVbusiness regisration
p7172
aVcar break-in
p7173
aVwater use per capita
p7174
aVassessed property values
p7175
aVprivate shuttle
p7176
aVunit partners
p7177
aVbusineoss search
p7178
aVover time
p7179
aV2010 population
p7180
aVprostitution tenderloin
p7181
aVbusiness services
p7182
aVcommercial areas
p7183
aVfar
p7184
aVcity survey 2013
p7185
aVtyger
p7186
aVcrime 2013
p7187
aVtep
p7188
aVopenspace
p7189
aVvoicepark
p7190
aVchezch
p7191
aVcity square
p7192
aVridrship
p7193
aVcensusblock no water
p7194
aVdonut
p7195
aVconservation districts
p7196
aVarticle 1
p7197
aVhanami
p7198
aVauto counts
p7199
aVbikes thief
p7200
aVbuilding permis
p7201
aVassessor block map 420 grove
p7202
aVcommunity development block grant
p7203
aVproduct review
p7204
aVv
p7205
aVberkely
p7206
aVgeneral outline
p7207
aValsabeel
p7208
aVaaron peskin gift
p7209
aVaffordablity
p7210
aVcompliants
p7211
aVdepartment of technology
p7212
aVpacific western bank
p7213
aVbuildhawk
p7214
aVbuilding maps
p7215
aVbouy
p7216
aVargentina
p7217
aVhotel taxes
p7218
aVcity planning
p7219
aVccn
p7220
aVaracely cafe business license
p7221
aVcafe de casa
p7222
aVzip code square miles
p7223
aVcheap projects
p7224
aVstudent
p7225
aVstreet names shapefile
p7226
aVrevive
p7227
aVstreet grid
p7228
aV0369159
p7229
aVamerican beverage association
p7230
aVheight limits
p7231
aVcoasta
p7232
aVpipelines
p7233
aVwaze
p7234
aVoutstanding
p7235
aVstudio 19
p7236
aVresidential projects with
p7237
aVcheck
p7238
aVaerial image
p7239
aVacorns
p7240
aVbuilding history
p7241
aVbudget fte
p7242
aVsupervisorial districts as of april 2012
p7243
aVcommunity indicator
p7244
aVmonnens
p7245
aVbayview area plan
p7246
aVpolice budget
p7247
aVcollage stationary data
p7248
aVemails
p7249
aVplss
p7250
aVmarinas
p7251
aVchild care center
p7252
aVcondemed
p7253
aVucfs mission bay
p7254
aVarf
p7255
aVcell tower telecommunications facilities
p7256
aVhousing data
p7257
aVspeed compliance
p7258
aVbirth records
p7259
aVroedors
p7260
aVcencus block 2000
p7261
aVincome\u005c
p7262
aVapache
p7263
aVsea cliff
p7264
aVgis bay
p7265
aVpm
p7266
aVbike shapefiles
p7267
aVcensus tracts 2000
p7268
aV2015 election
p7269
aVhousing constructed
p7270
aVabandoned property
p7271
aVhouse hold
p7272
aVcongressional districts
p7273
aVbusiness certficate
p7274
aVsan francisco oakland bay bridge
p7275
aVantioch,ca homeless youth
p7276
aVcommercial mortgage
p7277
aVlerner
p7278
aVhousing capacity
p7279
aVcantanary
p7280
aVgrievance
p7281
aVbirthday
p7282
aVcomputer classes
p7283
aV1951 oak
p7284
aVin situ
p7285
aVpolice shootings
p7286
aVclassification map
p7287
aVcontractor
p7288
aVdigitial storm data set
p7289
aVclick search
p7290
aVcampaign finance delinquent
p7291
aVc9w8-qfpk
p7292
aVearth quick
p7293
aVhomeless count
p7294
aV2015 q1
p7295
aVtt group
p7296
aVyouth citation
p7297
aVcommissioner districts
p7298
aVgujarat
p7299
aVbuilding violations
p7300
aVfood truck permit
p7301
aVhousing by neighborhoods
p7302
aVcancle risk
p7303
aVmuni bus route
p7304
aVun plaza
p7305
aVtreasure island festival"
p7306
aVbay area traffiv
p7307
aVvienna
p7308
aVmountains
p7309
aVsalery ranges by job classification
p7310
aVmsa
p7311
aVfact sheet
p7312
aVaddress of record
p7313
aVfamis
p7314
aVcoordinator
p7315
aVreintegration
p7316
aVvehicular counts
p7317
aVtest scores
p7318
aVcensus'
p7319
aVinsect
p7320
aVanti asian
p7321
aVcable car route
p7322
aVasthma rates
p7323
aVcensus employment
p7324
aVcall data
p7325
aVbuilding information
p7326
aVcity assets
p7327
aVcensus tract 327
p7328
aVparking limits
p7329
aVcommittee to expand the middle class
p7330
aVcrocker amazon
p7331
aVartery
p7332
aVblack and white crime
p7333
aVtransit line
p7334
aVlydia chavez
p7335
aVstolen vehicles
p7336
aVsan francisco data graphs in 1848
p7337
aVproportion of housing that is owner occupied
p7338
aVbdp
p7339
aV"red bull"
p7340
aVblobk
p7341
aVarchives
p7342
aVanime and manga
p7343
aVdistrict 10 demographics
p7344
aVsan francisco pier gis
p7345
aVclimate resiliency
p7346
aVtank hill geological map
p7347
aVbelmonte
p7348
aVtax rate areas
p7349
aVdcyf
p7350
aVpredicted
p7351
aVboad of supervisors
p7352
aVbuilding roof
p7353
aVcolor curb
p7354
aVbase plan
p7355
aVjapantown shapefile
p7356
aVaccrued
p7357
aVsf civic art collection
p7358
aVchatz roasting company
p7359
aVtan
p7360
aVunions
p7361
aVa1 environmental
p7362
aVrent control eviction notices
p7363
aVbasemap street
p7364
aVbank robbery
p7365
aVcompanies in san francisco 2015
p7366
aVorange
p7367
aVfingerprint
p7368
aVcity workforce ethnic
p7369
aVaffordable housing market rate
p7370
aVstreets outline
p7371
aVambassadors
p7372
aV80
p7373
aVpublic open spaces
p7374
aVbella and ceccx
p7375
aVclifton tolboe
p7376
aVsit-lie
p7377
aVclimate data
p7378
aVorganic
p7379
aVaccounting, purchasing, eis
p7380
aVfood security
p7381
aVblock group data
p7382
aVaccountant
p7383
aVspiritual and religious centers
p7384
aVassessemnt
p7385
aVaffortable
p7386
aVslider
p7387
aVtaxi trace data
p7388
aVtraffic circle
p7389
aVbus gps
p7390
aVballot measure e
p7391
aVicome
p7392
aVconstruction date
p7393
aVtraffic ticket
p7394
aVmarket rate housing
p7395
aVbusinesses open 40 years
p7396
aVboston building attributes
p7397
aVclass
p7398
aVbiuldings
p7399
aVabandoned vehicles
p7400
aVassesor parcel
p7401
aVperfor
p7402
aVeat
p7403
aVneighborhood score
p7404
aV460 d
p7405
aVcensuss blocks
p7406
aVwhether
p7407
aVarff
p7408
aVluxury feet massage
p7409
aVtheater audience
p7410
aVagencies
p7411
aVlaweyer
p7412
aVauctions
p7413
aVstreet direction
p7414
aVcnesus 2010
p7415
aVparkign meter
p7416
aVwindow
p7417
aVsf_map
p7418
aVbranch library location
p7419
aVbuilding heirhg
p7420
aVart district
p7421
aVclimate action plan
p7422
aVaids coalition
p7423
aVcopy of business licenses
p7424
aVcompleted
p7425
aVon street
p7426
aVfood budget
p7427
aVpoint of interest
p7428
aVproperty assessment data
p7429
aVcity buildings
p7430
aV"animal control"
p7431
aVafrican american population by neighborhood
p7432
aVlow income areas
p7433
aVrestaurant health score
p7434
aVpure incubation llc
p7435
aVbase map of san francisco
p7436
aVtrees-species
p7437
aVemployees payroll taxes
p7438
aVcolumn
p7439
aVdevelopment 2012
p7440
aVdevelopment 2014
p7441
aVacceptance
p7442
aV.gpx
p7443
aVmaize
p7444
aVcliff's variet
p7445
aVfour season service
p7446
aVbase maps
p7447
aVtree shapefile
p7448
aVcampaign monetary
p7449
aVcitylotws
p7450
aVautomated
p7451
aVcensus tracts by street
p7452
aVhome robberies
p7453
aVcensus supervisor
p7454
aVenrollment, 2014
p7455
aVcake
p7456
aVage data
p7457
aVpercent
p7458
aVcity admin code
p7459
aVdisclosure
p7460
aVtang power wash
p7461
a.